
STMViewer_test.elf:     file format elf32-littlearm

Sections:
Idx Name          Size      VMA       LMA       File off  Algn
  0 .isr_vector   000001d8  08000000  08000000  00010000  2**0
                  CONTENTS, ALLOC, LOAD, READONLY, DATA
  1 .text         00000ed0  080001d8  080001d8  000101d8  2**2
                  CONTENTS, ALLOC, LOAD, READONLY, CODE
  2 .rodata       000000f8  080010a8  080010a8  000110a8  2**0
                  CONTENTS, ALLOC, LOAD, READONLY, DATA
  3 .ARM.extab    00000000  080011a0  080011a0  0002000c  2**0
                  CONTENTS
  4 .ARM          00000000  080011a0  080011a0  0002000c  2**0
                  CONTENTS
  5 .preinit_array 00000000  080011a0  080011a0  0002000c  2**0
                  CONTENTS, ALLOC, LOAD, DATA
  6 .init_array   00000004  080011a0  080011a0  000111a0  2**2
                  CONTENTS, ALLOC, LOAD, DATA
  7 .fini_array   00000004  080011a4  080011a4  000111a4  2**2
                  CONTENTS, ALLOC, LOAD, DATA
  8 .data         0000000c  20000000  080011a8  00020000  2**2
                  CONTENTS, ALLOC, LOAD, DATA
  9 .bss          00000020  2000000c  080011b4  0002000c  2**2
                  ALLOC
 10 ._user_heap_stack 00000604  2000002c  080011b4  0002002c  2**0
                  ALLOC
 11 .ARM.attributes 00000030  00000000  00000000  0002000c  2**0
                  CONTENTS, READONLY
 12 .comment      00000049  00000000  00000000  0002003c  2**0
                  CONTENTS, READONLY
 13 .debug_frame  0000004c  00000000  00000000  00020088  2**2
                  CONTENTS, READONLY, DEBUGGING, OCTETS

Disassembly of section .text:

080001d8 <__do_global_dtors_aux>:
 80001d8:	b510      	push	{r4, lr}
 80001da:	4c05      	ldr	r4, [pc, #20]	; (80001f0 <__do_global_dtors_aux+0x18>)
 80001dc:	7823      	ldrb	r3, [r4, #0]
 80001de:	b933      	cbnz	r3, 80001ee <__do_global_dtors_aux+0x16>
 80001e0:	4b04      	ldr	r3, [pc, #16]	; (80001f4 <__do_global_dtors_aux+0x1c>)
 80001e2:	b113      	cbz	r3, 80001ea <__do_global_dtors_aux+0x12>
 80001e4:	4804      	ldr	r0, [pc, #16]	; (80001f8 <__do_global_dtors_aux+0x20>)
 80001e6:	f3af 8000 	nop.w
 80001ea:	2301      	movs	r3, #1
 80001ec:	7023      	strb	r3, [r4, #0]
 80001ee:	bd10      	pop	{r4, pc}
 80001f0:	2000000c 	.word	0x2000000c
 80001f4:	00000000 	.word	0x00000000
 80001f8:	08001090 	.word	0x08001090

080001fc <frame_dummy>:
 80001fc:	b508      	push	{r3, lr}
 80001fe:	4b03      	ldr	r3, [pc, #12]	; (800020c <frame_dummy+0x10>)
 8000200:	b11b      	cbz	r3, 800020a <frame_dummy+0xe>
 8000202:	4903      	ldr	r1, [pc, #12]	; (8000210 <frame_dummy+0x14>)
 8000204:	4803      	ldr	r0, [pc, #12]	; (8000214 <frame_dummy+0x18>)
 8000206:	f3af 8000 	nop.w
 800020a:	bd08      	pop	{r3, pc}
 800020c:	00000000 	.word	0x00000000
 8000210:	20000010 	.word	0x20000010
 8000214:	08001090 	.word	0x08001090

08000218 <SystemClock_Config>:
 8000218:	b510      	push	{r4, lr}
 800021a:	b094      	sub	sp, #80	; 0x50
 800021c:	2238      	movs	r2, #56	; 0x38
 800021e:	2100      	movs	r1, #0
 8000220:	a806      	add	r0, sp, #24
 8000222:	f000 ff2d 	bl	8001080 <memset>
 8000226:	2214      	movs	r2, #20
 8000228:	2100      	movs	r1, #0
 800022a:	a801      	add	r0, sp, #4
 800022c:	f000 ff28 	bl	8001080 <memset>
 8000230:	f44f 7000 	mov.w	r0, #512	; 0x200
 8000234:	f000 f976 	bl	8000524 <HAL_PWREx_ControlVoltageScaling>
 8000238:	2240      	movs	r2, #64	; 0x40
 800023a:	f44f 7180 	mov.w	r1, #256	; 0x100
 800023e:	2302      	movs	r3, #2
 8000240:	e9cd 1209 	strd	r1, r2, [sp, #36]	; 0x24
 8000244:	2404      	movs	r4, #4
 8000246:	224b      	movs	r2, #75	; 0x4b
 8000248:	a806      	add	r0, sp, #24
 800024a:	e9cd 330d 	strd	r3, r3, [sp, #52]	; 0x34
 800024e:	e9cd 420f 	strd	r4, r2, [sp, #60]	; 0x3c
 8000252:	e9cd 3311 	strd	r3, r3, [sp, #68]	; 0x44
 8000256:	9306      	str	r3, [sp, #24]
 8000258:	9313      	str	r3, [sp, #76]	; 0x4c
 800025a:	f000 f9d7 	bl	800060c <HAL_RCC_OscConfig>
 800025e:	b108      	cbz	r0, 8000264 <SystemClock_Config+0x4c>
 8000260:	b672      	cpsid	i
 8000262:	e7fe      	b.n	8000262 <SystemClock_Config+0x4a>
 8000264:	e9cd 0003 	strd	r0, r0, [sp, #12]
 8000268:	220f      	movs	r2, #15
 800026a:	2303      	movs	r3, #3
 800026c:	9005      	str	r0, [sp, #20]
 800026e:	4621      	mov	r1, r4
 8000270:	a801      	add	r0, sp, #4
 8000272:	e9cd 2301 	strd	r2, r3, [sp, #4]
 8000276:	f000 fca1 	bl	8000bbc <HAL_RCC_ClockConfig>
 800027a:	b108      	cbz	r0, 8000280 <SystemClock_Config+0x68>
 800027c:	b672      	cpsid	i
 800027e:	e7fe      	b.n	800027e <SystemClock_Config+0x66>
 8000280:	b014      	add	sp, #80	; 0x50
 8000282:	bd10      	pop	{r4, pc}

08000284 <main>:
 8000284:	b500      	push	{lr}
 8000286:	b089      	sub	sp, #36	; 0x24
 8000288:	f000 f8b6 	bl	80003f8 <HAL_Init>
 800028c:	f7ff ffc4 	bl	8000218 <SystemClock_Config>
 8000290:	2210      	movs	r2, #16
 8000292:	2100      	movs	r1, #0
 8000294:	eb0d 0002 	add.w	r0, sp, r2
 8000298:	f000 fef2 	bl	8001080 <memset>
 800029c:	4b15      	ldr	r3, [pc, #84]	; (80002f4 <main+0x70>)
 800029e:	4c16      	ldr	r4, [pc, #88]	; (80002f8 <main+0x74>)
 80002a0:	6cda      	ldr	r2, [r3, #76]	; 0x4c
 80002a2:	f042 0204 	orr.w	r2, r2, #4
 80002a6:	64da      	str	r2, [r3, #76]	; 0x4c
 80002a8:	6cda      	ldr	r2, [r3, #76]	; 0x4c
 80002aa:	f002 0204 	and.w	r2, r2, #4
 80002ae:	9201      	str	r2, [sp, #4]
 80002b0:	9a01      	ldr	r2, [sp, #4]
 80002b2:	6cda      	ldr	r2, [r3, #76]	; 0x4c
 80002b4:	f042 0201 	orr.w	r2, r2, #1
 80002b8:	64da      	str	r2, [r3, #76]	; 0x4c
 80002ba:	6cdb      	ldr	r3, [r3, #76]	; 0x4c
 80002bc:	f003 0301 	and.w	r3, r3, #1
 80002c0:	9300      	str	r3, [sp, #0]
 80002c2:	9b00      	ldr	r3, [sp, #0]
 80002c4:	f44f 4680 	mov.w	r6, #16384	; 0x4000
 80002c8:	f44f 5300 	mov.w	r3, #8192	; 0x2000
 80002cc:	62a3      	str	r3, [r4, #40]	; 0x28
 80002ce:	2501      	movs	r5, #1
 80002d0:	62a6      	str	r6, [r4, #40]	; 0x28
 80002d2:	a902      	add	r1, sp, #8
 80002d4:	4620      	mov	r0, r4
 80002d6:	9302      	str	r3, [sp, #8]
 80002d8:	9503      	str	r5, [sp, #12]
 80002da:	f000 fdbd 	bl	8000e58 <LL_GPIO_Init>
 80002de:	2300      	movs	r3, #0
 80002e0:	a902      	add	r1, sp, #8
 80002e2:	4620      	mov	r0, r4
 80002e4:	e9cd 6502 	strd	r6, r5, [sp, #8]
 80002e8:	e9cd 3304 	strd	r3, r3, [sp, #16]
 80002ec:	9306      	str	r3, [sp, #24]
 80002ee:	f000 fdb3 	bl	8000e58 <LL_GPIO_Init>
 80002f2:	e7fe      	b.n	80002f2 <main+0x6e>
 80002f4:	40021000 	.word	0x40021000
 80002f8:	48000800 	.word	0x48000800

080002fc <assert_failed>:
 80002fc:	4770      	bx	lr
	...

08000300 <HAL_MspInit>:
 8000300:	4b0a      	ldr	r3, [pc, #40]	; (800032c <HAL_MspInit+0x2c>)
 8000302:	6e1a      	ldr	r2, [r3, #96]	; 0x60
 8000304:	f042 0201 	orr.w	r2, r2, #1
 8000308:	661a      	str	r2, [r3, #96]	; 0x60
 800030a:	6e1a      	ldr	r2, [r3, #96]	; 0x60
 800030c:	b082      	sub	sp, #8
 800030e:	f002 0201 	and.w	r2, r2, #1
 8000312:	9200      	str	r2, [sp, #0]
 8000314:	9a00      	ldr	r2, [sp, #0]
 8000316:	6d9a      	ldr	r2, [r3, #88]	; 0x58
 8000318:	f042 5280 	orr.w	r2, r2, #268435456	; 0x10000000
 800031c:	659a      	str	r2, [r3, #88]	; 0x58
 800031e:	6d9b      	ldr	r3, [r3, #88]	; 0x58
 8000320:	f003 5380 	and.w	r3, r3, #268435456	; 0x10000000
 8000324:	9301      	str	r3, [sp, #4]
 8000326:	9b01      	ldr	r3, [sp, #4]
 8000328:	b002      	add	sp, #8
 800032a:	4770      	bx	lr
 800032c:	40021000 	.word	0x40021000

08000330 <NMI_Handler>:
 8000330:	e7fe      	b.n	8000330 <NMI_Handler>

08000332 <HardFault_Handler>:
 8000332:	e7fe      	b.n	8000332 <HardFault_Handler>

08000334 <MemManage_Handler>:
 8000334:	e7fe      	b.n	8000334 <MemManage_Handler>

08000336 <BusFault_Handler>:
 8000336:	e7fe      	b.n	8000336 <BusFault_Handler>

08000338 <UsageFault_Handler>:
 8000338:	e7fe      	b.n	8000338 <UsageFault_Handler>

0800033a <SVC_Handler>:
 800033a:	4770      	bx	lr

0800033c <DebugMon_Handler>:
 800033c:	4770      	bx	lr

0800033e <PendSV_Handler>:
 800033e:	4770      	bx	lr

08000340 <SysTick_Handler>:
 8000340:	f000 b86a 	b.w	8000418 <HAL_IncTick>

08000344 <SystemInit>:
 8000344:	4a03      	ldr	r2, [pc, #12]	; (8000354 <SystemInit+0x10>)
 8000346:	f8d2 3088 	ldr.w	r3, [r2, #136]	; 0x88
 800034a:	f443 0370 	orr.w	r3, r3, #15728640	; 0xf00000
 800034e:	f8c2 3088 	str.w	r3, [r2, #136]	; 0x88
 8000352:	4770      	bx	lr
 8000354:	e000ed00 	.word	0xe000ed00

08000358 <Reset_Handler>:
 8000358:	480d      	ldr	r0, [pc, #52]	; (8000390 <LoopForever+0x2>)
 800035a:	4685      	mov	sp, r0
 800035c:	480d      	ldr	r0, [pc, #52]	; (8000394 <LoopForever+0x6>)
 800035e:	490e      	ldr	r1, [pc, #56]	; (8000398 <LoopForever+0xa>)
 8000360:	4a0e      	ldr	r2, [pc, #56]	; (800039c <LoopForever+0xe>)
 8000362:	2300      	movs	r3, #0
 8000364:	e002      	b.n	800036c <LoopCopyDataInit>

08000366 <CopyDataInit>:
 8000366:	58d4      	ldr	r4, [r2, r3]
 8000368:	50c4      	str	r4, [r0, r3]
 800036a:	3304      	adds	r3, #4

0800036c <LoopCopyDataInit>:
 800036c:	18c4      	adds	r4, r0, r3
 800036e:	428c      	cmp	r4, r1
 8000370:	d3f9      	bcc.n	8000366 <CopyDataInit>
 8000372:	4a0b      	ldr	r2, [pc, #44]	; (80003a0 <LoopForever+0x12>)
 8000374:	4c0b      	ldr	r4, [pc, #44]	; (80003a4 <LoopForever+0x16>)
 8000376:	2300      	movs	r3, #0
 8000378:	e001      	b.n	800037e <LoopFillZerobss>

0800037a <FillZerobss>:
 800037a:	6013      	str	r3, [r2, #0]
 800037c:	3204      	adds	r2, #4

0800037e <LoopFillZerobss>:
 800037e:	42a2      	cmp	r2, r4
 8000380:	d3fb      	bcc.n	800037a <FillZerobss>
 8000382:	f7ff ffdf 	bl	8000344 <SystemInit>
 8000386:	f000 fe57 	bl	8001038 <__libc_init_array>
 800038a:	f7ff ff7b 	bl	8000284 <main>

0800038e <LoopForever>:
 800038e:	e7fe      	b.n	800038e <LoopForever>
 8000390:	20020000 	.word	0x20020000
 8000394:	20000000 	.word	0x20000000
 8000398:	2000000c 	.word	0x2000000c
 800039c:	080011a8 	.word	0x080011a8
 80003a0:	2000000c 	.word	0x2000000c
 80003a4:	2000002c 	.word	0x2000002c

080003a8 <ADC1_2_IRQHandler>:
 80003a8:	e7fe      	b.n	80003a8 <ADC1_2_IRQHandler>
	...

080003ac <HAL_InitTick>:
 80003ac:	b538      	push	{r3, r4, r5, lr}
 80003ae:	4b0f      	ldr	r3, [pc, #60]	; (80003ec <HAL_InitTick+0x40>)
 80003b0:	4605      	mov	r5, r0
 80003b2:	6818      	ldr	r0, [r3, #0]
 80003b4:	b908      	cbnz	r0, 80003ba <HAL_InitTick+0xe>
 80003b6:	2001      	movs	r0, #1
 80003b8:	bd38      	pop	{r3, r4, r5, pc}
 80003ba:	4a0d      	ldr	r2, [pc, #52]	; (80003f0 <HAL_InitTick+0x44>)
 80003bc:	f44f 737a 	mov.w	r3, #1000	; 0x3e8
 80003c0:	fbb3 f3f0 	udiv	r3, r3, r0
 80003c4:	6810      	ldr	r0, [r2, #0]
 80003c6:	fbb0 f0f3 	udiv	r0, r0, r3
 80003ca:	f000 f897 	bl	80004fc <HAL_SYSTICK_Config>
 80003ce:	4604      	mov	r4, r0
 80003d0:	2800      	cmp	r0, #0
 80003d2:	d1f0      	bne.n	80003b6 <HAL_InitTick+0xa>
 80003d4:	2d0f      	cmp	r5, #15
 80003d6:	d8ee      	bhi.n	80003b6 <HAL_InitTick+0xa>
 80003d8:	4602      	mov	r2, r0
 80003da:	4629      	mov	r1, r5
 80003dc:	f04f 30ff 	mov.w	r0, #4294967295	; 0xffffffff
 80003e0:	f000 f848 	bl	8000474 <HAL_NVIC_SetPriority>
 80003e4:	4b03      	ldr	r3, [pc, #12]	; (80003f4 <HAL_InitTick+0x48>)
 80003e6:	4620      	mov	r0, r4
 80003e8:	601d      	str	r5, [r3, #0]
 80003ea:	e7e5      	b.n	80003b8 <HAL_InitTick+0xc>
 80003ec:	20000004 	.word	0x20000004
 80003f0:	20000000 	.word	0x20000000
 80003f4:	20000008 	.word	0x20000008

080003f8 <HAL_Init>:
 80003f8:	b510      	push	{r4, lr}
 80003fa:	2003      	movs	r0, #3
 80003fc:	f000 f81e 	bl	800043c <HAL_NVIC_SetPriorityGrouping>
 8000400:	200f      	movs	r0, #15
 8000402:	f7ff ffd3 	bl	80003ac <HAL_InitTick>
 8000406:	4604      	mov	r4, r0
 8000408:	b918      	cbnz	r0, 8000412 <HAL_Init+0x1a>
 800040a:	f7ff ff79 	bl	8000300 <HAL_MspInit>
 800040e:	4620      	mov	r0, r4
 8000410:	bd10      	pop	{r4, pc}
 8000412:	2401      	movs	r4, #1
 8000414:	e7fb      	b.n	800040e <HAL_Init+0x16>
	...

08000418 <HAL_IncTick>:
 8000418:	4a03      	ldr	r2, [pc, #12]	; (8000428 <HAL_IncTick+0x10>)
 800041a:	4904      	ldr	r1, [pc, #16]	; (800042c <HAL_IncTick+0x14>)
 800041c:	6813      	ldr	r3, [r2, #0]
 800041e:	6809      	ldr	r1, [r1, #0]
 8000420:	440b      	add	r3, r1
 8000422:	6013      	str	r3, [r2, #0]
 8000424:	4770      	bx	lr
 8000426:	bf00      	nop
 8000428:	20000028 	.word	0x20000028
 800042c:	20000004 	.word	0x20000004

08000430 <HAL_GetTick>:
 8000430:	4b01      	ldr	r3, [pc, #4]	; (8000438 <HAL_GetTick+0x8>)
 8000432:	6818      	ldr	r0, [r3, #0]
 8000434:	4770      	bx	lr
 8000436:	bf00      	nop
 8000438:	20000028 	.word	0x20000028

0800043c <HAL_NVIC_SetPriorityGrouping>:
 800043c:	1ec3      	subs	r3, r0, #3
 800043e:	2b04      	cmp	r3, #4
 8000440:	b510      	push	{r4, lr}
 8000442:	4604      	mov	r4, r0
 8000444:	d903      	bls.n	800044e <HAL_NVIC_SetPriorityGrouping+0x12>
 8000446:	4809      	ldr	r0, [pc, #36]	; (800046c <HAL_NVIC_SetPriorityGrouping+0x30>)
 8000448:	21a6      	movs	r1, #166	; 0xa6
 800044a:	f7ff ff57 	bl	80002fc <assert_failed>
 800044e:	4908      	ldr	r1, [pc, #32]	; (8000470 <HAL_NVIC_SetPriorityGrouping+0x34>)
 8000450:	68ca      	ldr	r2, [r1, #12]
 8000452:	0223      	lsls	r3, r4, #8
 8000454:	f64f 04ff 	movw	r4, #63743	; 0xf8ff
 8000458:	f403 63e0 	and.w	r3, r3, #1792	; 0x700
 800045c:	4014      	ands	r4, r2
 800045e:	4323      	orrs	r3, r4
 8000460:	f043 63bf 	orr.w	r3, r3, #100139008	; 0x5f80000
 8000464:	f443 3300 	orr.w	r3, r3, #131072	; 0x20000
 8000468:	60cb      	str	r3, [r1, #12]
 800046a:	bd10      	pop	{r4, pc}
 800046c:	080010b8 	.word	0x080010b8
 8000470:	e000ed00 	.word	0xe000ed00

08000474 <HAL_NVIC_SetPriority>:
 8000474:	2a0f      	cmp	r2, #15
 8000476:	b570      	push	{r4, r5, r6, lr}
 8000478:	4605      	mov	r5, r0
 800047a:	460c      	mov	r4, r1
 800047c:	4616      	mov	r6, r2
 800047e:	d903      	bls.n	8000488 <HAL_NVIC_SetPriority+0x14>
 8000480:	481b      	ldr	r0, [pc, #108]	; (80004f0 <HAL_NVIC_SetPriority+0x7c>)
 8000482:	21be      	movs	r1, #190	; 0xbe
 8000484:	f7ff ff3a 	bl	80002fc <assert_failed>
 8000488:	2c0f      	cmp	r4, #15
 800048a:	d903      	bls.n	8000494 <HAL_NVIC_SetPriority+0x20>
 800048c:	4818      	ldr	r0, [pc, #96]	; (80004f0 <HAL_NVIC_SetPriority+0x7c>)
 800048e:	21bf      	movs	r1, #191	; 0xbf
 8000490:	f7ff ff34 	bl	80002fc <assert_failed>
 8000494:	4b17      	ldr	r3, [pc, #92]	; (80004f4 <HAL_NVIC_SetPriority+0x80>)
 8000496:	68d8      	ldr	r0, [r3, #12]
 8000498:	f3c0 2002 	ubfx	r0, r0, #8, #3
 800049c:	f1c0 0307 	rsb	r3, r0, #7
 80004a0:	1d02      	adds	r2, r0, #4
 80004a2:	2b04      	cmp	r3, #4
 80004a4:	bf28      	it	cs
 80004a6:	2304      	movcs	r3, #4
 80004a8:	2a06      	cmp	r2, #6
 80004aa:	f04f 32ff 	mov.w	r2, #4294967295	; 0xffffffff
 80004ae:	fa02 f303 	lsl.w	r3, r2, r3
 80004b2:	bf8c      	ite	hi
 80004b4:	3803      	subhi	r0, #3
 80004b6:	2000      	movls	r0, #0
 80004b8:	ea24 0303 	bic.w	r3, r4, r3
 80004bc:	4083      	lsls	r3, r0
 80004be:	fa02 f000 	lsl.w	r0, r2, r0
 80004c2:	ea26 0600 	bic.w	r6, r6, r0
 80004c6:	2d00      	cmp	r5, #0
 80004c8:	ea43 0306 	orr.w	r3, r3, r6
 80004cc:	bfac      	ite	ge
 80004ce:	f105 4560 	addge.w	r5, r5, #3758096384	; 0xe0000000
 80004d2:	4a09      	ldrlt	r2, [pc, #36]	; (80004f8 <HAL_NVIC_SetPriority+0x84>)
 80004d4:	ea4f 1303 	mov.w	r3, r3, lsl #4
 80004d8:	bfb8      	it	lt
 80004da:	f005 050f 	andlt.w	r5, r5, #15
 80004de:	b2db      	uxtb	r3, r3
 80004e0:	bfaa      	itet	ge
 80004e2:	f505 4561 	addge.w	r5, r5, #57600	; 0xe100
 80004e6:	5553      	strblt	r3, [r2, r5]
 80004e8:	f885 3300 	strbge.w	r3, [r5, #768]	; 0x300
 80004ec:	bd70      	pop	{r4, r5, r6, pc}
 80004ee:	bf00      	nop
 80004f0:	080010b8 	.word	0x080010b8
 80004f4:	e000ed00 	.word	0xe000ed00
 80004f8:	e000ed14 	.word	0xe000ed14

080004fc <HAL_SYSTICK_Config>:
 80004fc:	3801      	subs	r0, #1
 80004fe:	f1b0 7f80 	cmp.w	r0, #16777216	; 0x1000000
 8000502:	d20b      	bcs.n	800051c <HAL_SYSTICK_Config+0x20>
 8000504:	f04f 23e0 	mov.w	r3, #3758153728	; 0xe000e000
 8000508:	4a05      	ldr	r2, [pc, #20]	; (8000520 <HAL_SYSTICK_Config+0x24>)
 800050a:	6158      	str	r0, [r3, #20]
 800050c:	21f0      	movs	r1, #240	; 0xf0
 800050e:	f882 1023 	strb.w	r1, [r2, #35]	; 0x23
 8000512:	2000      	movs	r0, #0
 8000514:	2207      	movs	r2, #7
 8000516:	6198      	str	r0, [r3, #24]
 8000518:	611a      	str	r2, [r3, #16]
 800051a:	4770      	bx	lr
 800051c:	2001      	movs	r0, #1
 800051e:	4770      	bx	lr
 8000520:	e000ed00 	.word	0xe000ed00

08000524 <HAL_PWREx_ControlVoltageScaling>:
 8000524:	b510      	push	{r4, lr}
 8000526:	4c35      	ldr	r4, [pc, #212]	; (80005fc <HAL_PWREx_ControlVoltageScaling+0xd8>)
 8000528:	b310      	cbz	r0, 8000570 <HAL_PWREx_ControlVoltageScaling+0x4c>
 800052a:	f5b0 7f00 	cmp.w	r0, #512	; 0x200
 800052e:	d043      	beq.n	80005b8 <HAL_PWREx_ControlVoltageScaling+0x94>
 8000530:	f5b0 6f80 	cmp.w	r0, #1024	; 0x400
 8000534:	d003      	beq.n	800053e <HAL_PWREx_ControlVoltageScaling+0x1a>
 8000536:	4832      	ldr	r0, [pc, #200]	; (8000600 <HAL_PWREx_ControlVoltageScaling+0xdc>)
 8000538:	219d      	movs	r1, #157	; 0x9d
 800053a:	f7ff fedf 	bl	80002fc <assert_failed>
 800053e:	6823      	ldr	r3, [r4, #0]
 8000540:	f423 63c0 	bic.w	r3, r3, #1536	; 0x600
 8000544:	f443 6380 	orr.w	r3, r3, #1024	; 0x400
 8000548:	6023      	str	r3, [r4, #0]
 800054a:	e033      	b.n	80005b4 <HAL_PWREx_ControlVoltageScaling+0x90>
 800054c:	3b01      	subs	r3, #1
 800054e:	e029      	b.n	80005a4 <HAL_PWREx_ControlVoltageScaling+0x80>
 8000550:	2003      	movs	r0, #3
 8000552:	bd10      	pop	{r4, pc}
 8000554:	f8d4 3080 	ldr.w	r3, [r4, #128]	; 0x80
 8000558:	f423 7380 	bic.w	r3, r3, #256	; 0x100
 800055c:	f8c4 3080 	str.w	r3, [r4, #128]	; 0x80
 8000560:	e7f7      	b.n	8000552 <HAL_PWREx_ControlVoltageScaling+0x2e>
 8000562:	f8d4 3080 	ldr.w	r3, [r4, #128]	; 0x80
 8000566:	f443 7380 	orr.w	r3, r3, #256	; 0x100
 800056a:	f8c4 3080 	str.w	r3, [r4, #128]	; 0x80
 800056e:	e021      	b.n	80005b4 <HAL_PWREx_ControlVoltageScaling+0x90>
 8000570:	6823      	ldr	r3, [r4, #0]
 8000572:	f403 63c0 	and.w	r3, r3, #1536	; 0x600
 8000576:	f5b3 6f80 	cmp.w	r3, #1024	; 0x400
 800057a:	d1eb      	bne.n	8000554 <HAL_PWREx_ControlVoltageScaling+0x30>
 800057c:	f8d4 3080 	ldr.w	r3, [r4, #128]	; 0x80
 8000580:	f423 7380 	bic.w	r3, r3, #256	; 0x100
 8000584:	f8c4 3080 	str.w	r3, [r4, #128]	; 0x80
 8000588:	6823      	ldr	r3, [r4, #0]
 800058a:	f423 63c0 	bic.w	r3, r3, #1536	; 0x600
 800058e:	f443 7300 	orr.w	r3, r3, #512	; 0x200
 8000592:	6023      	str	r3, [r4, #0]
 8000594:	4b1b      	ldr	r3, [pc, #108]	; (8000604 <HAL_PWREx_ControlVoltageScaling+0xe0>)
 8000596:	681b      	ldr	r3, [r3, #0]
 8000598:	2232      	movs	r2, #50	; 0x32
 800059a:	4353      	muls	r3, r2
 800059c:	4a1a      	ldr	r2, [pc, #104]	; (8000608 <HAL_PWREx_ControlVoltageScaling+0xe4>)
 800059e:	fbb3 f3f2 	udiv	r3, r3, r2
 80005a2:	3301      	adds	r3, #1
 80005a4:	6962      	ldr	r2, [r4, #20]
 80005a6:	0550      	lsls	r0, r2, #21
 80005a8:	d501      	bpl.n	80005ae <HAL_PWREx_ControlVoltageScaling+0x8a>
 80005aa:	2b00      	cmp	r3, #0
 80005ac:	d1ce      	bne.n	800054c <HAL_PWREx_ControlVoltageScaling+0x28>
 80005ae:	6963      	ldr	r3, [r4, #20]
 80005b0:	0559      	lsls	r1, r3, #21
 80005b2:	d4cd      	bmi.n	8000550 <HAL_PWREx_ControlVoltageScaling+0x2c>
 80005b4:	2000      	movs	r0, #0
 80005b6:	e7cc      	b.n	8000552 <HAL_PWREx_ControlVoltageScaling+0x2e>
 80005b8:	6823      	ldr	r3, [r4, #0]
 80005ba:	f403 63c0 	and.w	r3, r3, #1536	; 0x600
 80005be:	f5b3 6f80 	cmp.w	r3, #1024	; 0x400
 80005c2:	d1ce      	bne.n	8000562 <HAL_PWREx_ControlVoltageScaling+0x3e>
 80005c4:	f8d4 3080 	ldr.w	r3, [r4, #128]	; 0x80
 80005c8:	f443 7380 	orr.w	r3, r3, #256	; 0x100
 80005cc:	f8c4 3080 	str.w	r3, [r4, #128]	; 0x80
 80005d0:	6823      	ldr	r3, [r4, #0]
 80005d2:	f423 63c0 	bic.w	r3, r3, #1536	; 0x600
 80005d6:	f443 7300 	orr.w	r3, r3, #512	; 0x200
 80005da:	6023      	str	r3, [r4, #0]
 80005dc:	4b09      	ldr	r3, [pc, #36]	; (8000604 <HAL_PWREx_ControlVoltageScaling+0xe0>)
 80005de:	681b      	ldr	r3, [r3, #0]
 80005e0:	2232      	movs	r2, #50	; 0x32
 80005e2:	4353      	muls	r3, r2
 80005e4:	4a08      	ldr	r2, [pc, #32]	; (8000608 <HAL_PWREx_ControlVoltageScaling+0xe4>)
 80005e6:	fbb3 f3f2 	udiv	r3, r3, r2
 80005ea:	3301      	adds	r3, #1
 80005ec:	6962      	ldr	r2, [r4, #20]
 80005ee:	0552      	lsls	r2, r2, #21
 80005f0:	d5dd      	bpl.n	80005ae <HAL_PWREx_ControlVoltageScaling+0x8a>
 80005f2:	2b00      	cmp	r3, #0
 80005f4:	d0db      	beq.n	80005ae <HAL_PWREx_ControlVoltageScaling+0x8a>
 80005f6:	3b01      	subs	r3, #1
 80005f8:	e7f8      	b.n	80005ec <HAL_PWREx_ControlVoltageScaling+0xc8>
 80005fa:	bf00      	nop
 80005fc:	40007000 	.word	0x40007000
 8000600:	080010f3 	.word	0x080010f3
 8000604:	20000000 	.word	0x20000000
 8000608:	000f4240 	.word	0x000f4240

0800060c <HAL_RCC_OscConfig>:
 800060c:	e92d 41f3 	stmdb	sp!, {r0, r1, r4, r5, r6, r7, r8, lr}
 8000610:	4604      	mov	r4, r0
 8000612:	2800      	cmp	r0, #0
 8000614:	d042      	beq.n	800069c <HAL_RCC_OscConfig+0x90>
 8000616:	6803      	ldr	r3, [r0, #0]
 8000618:	b9cb      	cbnz	r3, 800064e <HAL_RCC_OscConfig+0x42>
 800061a:	6823      	ldr	r3, [r4, #0]
 800061c:	071a      	lsls	r2, r3, #28
 800061e:	f100 80d7 	bmi.w	80007d0 <HAL_RCC_OscConfig+0x1c4>
 8000622:	6823      	ldr	r3, [r4, #0]
 8000624:	075b      	lsls	r3, r3, #29
 8000626:	f100 8106 	bmi.w	8000836 <HAL_RCC_OscConfig+0x22a>
 800062a:	6823      	ldr	r3, [r4, #0]
 800062c:	069a      	lsls	r2, r3, #26
 800062e:	f100 8180 	bmi.w	8000932 <HAL_RCC_OscConfig+0x326>
 8000632:	69e3      	ldr	r3, [r4, #28]
 8000634:	2b02      	cmp	r3, #2
 8000636:	d904      	bls.n	8000642 <HAL_RCC_OscConfig+0x36>
 8000638:	489b      	ldr	r0, [pc, #620]	; (80008a8 <HAL_RCC_OscConfig+0x29c>)
 800063a:	f44f 7119 	mov.w	r1, #612	; 0x264
 800063e:	f7ff fe5d 	bl	80002fc <assert_failed>
 8000642:	69e0      	ldr	r0, [r4, #28]
 8000644:	2800      	cmp	r0, #0
 8000646:	f040 81a7 	bne.w	8000998 <HAL_RCC_OscConfig+0x38c>
 800064a:	2000      	movs	r0, #0
 800064c:	e090      	b.n	8000770 <HAL_RCC_OscConfig+0x164>
 800064e:	f013 0f2f 	tst.w	r3, #47	; 0x2f
 8000652:	d104      	bne.n	800065e <HAL_RCC_OscConfig+0x52>
 8000654:	4894      	ldr	r0, [pc, #592]	; (80008a8 <HAL_RCC_OscConfig+0x29c>)
 8000656:	f240 1145 	movw	r1, #325	; 0x145
 800065a:	f7ff fe4f 	bl	80002fc <assert_failed>
 800065e:	6823      	ldr	r3, [r4, #0]
 8000660:	07d9      	lsls	r1, r3, #31
 8000662:	d52d      	bpl.n	80006c0 <HAL_RCC_OscConfig+0xb4>
 8000664:	6863      	ldr	r3, [r4, #4]
 8000666:	f433 3280 	bics.w	r2, r3, #65536	; 0x10000
 800066a:	d007      	beq.n	800067c <HAL_RCC_OscConfig+0x70>
 800066c:	f5b3 2fa0 	cmp.w	r3, #327680	; 0x50000
 8000670:	d004      	beq.n	800067c <HAL_RCC_OscConfig+0x70>
 8000672:	488d      	ldr	r0, [pc, #564]	; (80008a8 <HAL_RCC_OscConfig+0x29c>)
 8000674:	f240 114b 	movw	r1, #331	; 0x14b
 8000678:	f7ff fe40 	bl	80002fc <assert_failed>
 800067c:	4d8b      	ldr	r5, [pc, #556]	; (80008ac <HAL_RCC_OscConfig+0x2a0>)
 800067e:	68ab      	ldr	r3, [r5, #8]
 8000680:	68ea      	ldr	r2, [r5, #12]
 8000682:	f003 030c 	and.w	r3, r3, #12
 8000686:	2b0c      	cmp	r3, #12
 8000688:	d10a      	bne.n	80006a0 <HAL_RCC_OscConfig+0x94>
 800068a:	f002 0303 	and.w	r3, r2, #3
 800068e:	2b03      	cmp	r3, #3
 8000690:	d108      	bne.n	80006a4 <HAL_RCC_OscConfig+0x98>
 8000692:	682b      	ldr	r3, [r5, #0]
 8000694:	039a      	lsls	r2, r3, #14
 8000696:	d513      	bpl.n	80006c0 <HAL_RCC_OscConfig+0xb4>
 8000698:	6863      	ldr	r3, [r4, #4]
 800069a:	b98b      	cbnz	r3, 80006c0 <HAL_RCC_OscConfig+0xb4>
 800069c:	2001      	movs	r0, #1
 800069e:	e067      	b.n	8000770 <HAL_RCC_OscConfig+0x164>
 80006a0:	2b08      	cmp	r3, #8
 80006a2:	e7f5      	b.n	8000690 <HAL_RCC_OscConfig+0x84>
 80006a4:	6863      	ldr	r3, [r4, #4]
 80006a6:	f5b3 3f80 	cmp.w	r3, #65536	; 0x10000
 80006aa:	d13d      	bne.n	8000728 <HAL_RCC_OscConfig+0x11c>
 80006ac:	682b      	ldr	r3, [r5, #0]
 80006ae:	f443 3380 	orr.w	r3, r3, #65536	; 0x10000
 80006b2:	602b      	str	r3, [r5, #0]
 80006b4:	f7ff febc 	bl	8000430 <HAL_GetTick>
 80006b8:	4606      	mov	r6, r0
 80006ba:	682b      	ldr	r3, [r5, #0]
 80006bc:	039b      	lsls	r3, r3, #14
 80006be:	d551      	bpl.n	8000764 <HAL_RCC_OscConfig+0x158>
 80006c0:	6823      	ldr	r3, [r4, #0]
 80006c2:	0798      	lsls	r0, r3, #30
 80006c4:	d5a9      	bpl.n	800061a <HAL_RCC_OscConfig+0xe>
 80006c6:	68e3      	ldr	r3, [r4, #12]
 80006c8:	f433 7380 	bics.w	r3, r3, #256	; 0x100
 80006cc:	d004      	beq.n	80006d8 <HAL_RCC_OscConfig+0xcc>
 80006ce:	4876      	ldr	r0, [pc, #472]	; (80008a8 <HAL_RCC_OscConfig+0x29c>)
 80006d0:	f44f 71c0 	mov.w	r1, #384	; 0x180
 80006d4:	f7ff fe12 	bl	80002fc <assert_failed>
 80006d8:	6923      	ldr	r3, [r4, #16]
 80006da:	2b7f      	cmp	r3, #127	; 0x7f
 80006dc:	d904      	bls.n	80006e8 <HAL_RCC_OscConfig+0xdc>
 80006de:	4872      	ldr	r0, [pc, #456]	; (80008a8 <HAL_RCC_OscConfig+0x29c>)
 80006e0:	f240 1181 	movw	r1, #385	; 0x181
 80006e4:	f7ff fe0a 	bl	80002fc <assert_failed>
 80006e8:	4d70      	ldr	r5, [pc, #448]	; (80008ac <HAL_RCC_OscConfig+0x2a0>)
 80006ea:	68ab      	ldr	r3, [r5, #8]
 80006ec:	68ea      	ldr	r2, [r5, #12]
 80006ee:	f003 030c 	and.w	r3, r3, #12
 80006f2:	2b0c      	cmp	r3, #12
 80006f4:	d13f      	bne.n	8000776 <HAL_RCC_OscConfig+0x16a>
 80006f6:	f002 0303 	and.w	r3, r2, #3
 80006fa:	2b02      	cmp	r3, #2
 80006fc:	d13d      	bne.n	800077a <HAL_RCC_OscConfig+0x16e>
 80006fe:	682b      	ldr	r3, [r5, #0]
 8000700:	055e      	lsls	r6, r3, #21
 8000702:	d502      	bpl.n	800070a <HAL_RCC_OscConfig+0xfe>
 8000704:	68e3      	ldr	r3, [r4, #12]
 8000706:	2b00      	cmp	r3, #0
 8000708:	d0c8      	beq.n	800069c <HAL_RCC_OscConfig+0x90>
 800070a:	686b      	ldr	r3, [r5, #4]
 800070c:	6922      	ldr	r2, [r4, #16]
 800070e:	f023 43fe 	bic.w	r3, r3, #2130706432	; 0x7f000000
 8000712:	ea43 6302 	orr.w	r3, r3, r2, lsl #24
 8000716:	606b      	str	r3, [r5, #4]
 8000718:	4b65      	ldr	r3, [pc, #404]	; (80008b0 <HAL_RCC_OscConfig+0x2a4>)
 800071a:	6818      	ldr	r0, [r3, #0]
 800071c:	f7ff fe46 	bl	80003ac <HAL_InitTick>
 8000720:	2800      	cmp	r0, #0
 8000722:	f43f af7a 	beq.w	800061a <HAL_RCC_OscConfig+0xe>
 8000726:	e7b9      	b.n	800069c <HAL_RCC_OscConfig+0x90>
 8000728:	f5b3 2fa0 	cmp.w	r3, #327680	; 0x50000
 800072c:	d104      	bne.n	8000738 <HAL_RCC_OscConfig+0x12c>
 800072e:	682b      	ldr	r3, [r5, #0]
 8000730:	f443 2380 	orr.w	r3, r3, #262144	; 0x40000
 8000734:	602b      	str	r3, [r5, #0]
 8000736:	e7b9      	b.n	80006ac <HAL_RCC_OscConfig+0xa0>
 8000738:	682a      	ldr	r2, [r5, #0]
 800073a:	f422 3280 	bic.w	r2, r2, #65536	; 0x10000
 800073e:	602a      	str	r2, [r5, #0]
 8000740:	682a      	ldr	r2, [r5, #0]
 8000742:	f422 2280 	bic.w	r2, r2, #262144	; 0x40000
 8000746:	602a      	str	r2, [r5, #0]
 8000748:	2b00      	cmp	r3, #0
 800074a:	d1b3      	bne.n	80006b4 <HAL_RCC_OscConfig+0xa8>
 800074c:	f7ff fe70 	bl	8000430 <HAL_GetTick>
 8000750:	4606      	mov	r6, r0
 8000752:	682b      	ldr	r3, [r5, #0]
 8000754:	039f      	lsls	r7, r3, #14
 8000756:	d5b3      	bpl.n	80006c0 <HAL_RCC_OscConfig+0xb4>
 8000758:	f7ff fe6a 	bl	8000430 <HAL_GetTick>
 800075c:	1b80      	subs	r0, r0, r6
 800075e:	2864      	cmp	r0, #100	; 0x64
 8000760:	d9f7      	bls.n	8000752 <HAL_RCC_OscConfig+0x146>
 8000762:	e004      	b.n	800076e <HAL_RCC_OscConfig+0x162>
 8000764:	f7ff fe64 	bl	8000430 <HAL_GetTick>
 8000768:	1b80      	subs	r0, r0, r6
 800076a:	2864      	cmp	r0, #100	; 0x64
 800076c:	d9a5      	bls.n	80006ba <HAL_RCC_OscConfig+0xae>
 800076e:	2003      	movs	r0, #3
 8000770:	b002      	add	sp, #8
 8000772:	e8bd 81f0 	ldmia.w	sp!, {r4, r5, r6, r7, r8, pc}
 8000776:	2b04      	cmp	r3, #4
 8000778:	e7c0      	b.n	80006fc <HAL_RCC_OscConfig+0xf0>
 800077a:	68e3      	ldr	r3, [r4, #12]
 800077c:	b1bb      	cbz	r3, 80007ae <HAL_RCC_OscConfig+0x1a2>
 800077e:	682b      	ldr	r3, [r5, #0]
 8000780:	f443 7380 	orr.w	r3, r3, #256	; 0x100
 8000784:	602b      	str	r3, [r5, #0]
 8000786:	f7ff fe53 	bl	8000430 <HAL_GetTick>
 800078a:	4606      	mov	r6, r0
 800078c:	682b      	ldr	r3, [r5, #0]
 800078e:	0558      	lsls	r0, r3, #21
 8000790:	d507      	bpl.n	80007a2 <HAL_RCC_OscConfig+0x196>
 8000792:	686b      	ldr	r3, [r5, #4]
 8000794:	6922      	ldr	r2, [r4, #16]
 8000796:	f023 43fe 	bic.w	r3, r3, #2130706432	; 0x7f000000
 800079a:	ea43 6302 	orr.w	r3, r3, r2, lsl #24
 800079e:	606b      	str	r3, [r5, #4]
 80007a0:	e73b      	b.n	800061a <HAL_RCC_OscConfig+0xe>
 80007a2:	f7ff fe45 	bl	8000430 <HAL_GetTick>
 80007a6:	1b80      	subs	r0, r0, r6
 80007a8:	2802      	cmp	r0, #2
 80007aa:	d9ef      	bls.n	800078c <HAL_RCC_OscConfig+0x180>
 80007ac:	e7df      	b.n	800076e <HAL_RCC_OscConfig+0x162>
 80007ae:	682b      	ldr	r3, [r5, #0]
 80007b0:	f423 7380 	bic.w	r3, r3, #256	; 0x100
 80007b4:	602b      	str	r3, [r5, #0]
 80007b6:	f7ff fe3b 	bl	8000430 <HAL_GetTick>
 80007ba:	4606      	mov	r6, r0
 80007bc:	682b      	ldr	r3, [r5, #0]
 80007be:	0559      	lsls	r1, r3, #21
 80007c0:	f57f af2b 	bpl.w	800061a <HAL_RCC_OscConfig+0xe>
 80007c4:	f7ff fe34 	bl	8000430 <HAL_GetTick>
 80007c8:	1b80      	subs	r0, r0, r6
 80007ca:	2802      	cmp	r0, #2
 80007cc:	d9f6      	bls.n	80007bc <HAL_RCC_OscConfig+0x1b0>
 80007ce:	e7ce      	b.n	800076e <HAL_RCC_OscConfig+0x162>
 80007d0:	6963      	ldr	r3, [r4, #20]
 80007d2:	2b01      	cmp	r3, #1
 80007d4:	d904      	bls.n	80007e0 <HAL_RCC_OscConfig+0x1d4>
 80007d6:	4834      	ldr	r0, [pc, #208]	; (80008a8 <HAL_RCC_OscConfig+0x29c>)
 80007d8:	f44f 71e4 	mov.w	r1, #456	; 0x1c8
 80007dc:	f7ff fd8e 	bl	80002fc <assert_failed>
 80007e0:	6963      	ldr	r3, [r4, #20]
 80007e2:	4d32      	ldr	r5, [pc, #200]	; (80008ac <HAL_RCC_OscConfig+0x2a0>)
 80007e4:	b19b      	cbz	r3, 800080e <HAL_RCC_OscConfig+0x202>
 80007e6:	f8d5 3094 	ldr.w	r3, [r5, #148]	; 0x94
 80007ea:	f043 0301 	orr.w	r3, r3, #1
 80007ee:	f8c5 3094 	str.w	r3, [r5, #148]	; 0x94
 80007f2:	f7ff fe1d 	bl	8000430 <HAL_GetTick>
 80007f6:	4606      	mov	r6, r0
 80007f8:	f8d5 3094 	ldr.w	r3, [r5, #148]	; 0x94
 80007fc:	079f      	lsls	r7, r3, #30
 80007fe:	f53f af10 	bmi.w	8000622 <HAL_RCC_OscConfig+0x16>
 8000802:	f7ff fe15 	bl	8000430 <HAL_GetTick>
 8000806:	1b80      	subs	r0, r0, r6
 8000808:	2802      	cmp	r0, #2
 800080a:	d9f5      	bls.n	80007f8 <HAL_RCC_OscConfig+0x1ec>
 800080c:	e7af      	b.n	800076e <HAL_RCC_OscConfig+0x162>
 800080e:	f8d5 3094 	ldr.w	r3, [r5, #148]	; 0x94
 8000812:	f023 0301 	bic.w	r3, r3, #1
 8000816:	f8c5 3094 	str.w	r3, [r5, #148]	; 0x94
 800081a:	f7ff fe09 	bl	8000430 <HAL_GetTick>
 800081e:	4606      	mov	r6, r0
 8000820:	f8d5 3094 	ldr.w	r3, [r5, #148]	; 0x94
 8000824:	0798      	lsls	r0, r3, #30
 8000826:	f57f aefc 	bpl.w	8000622 <HAL_RCC_OscConfig+0x16>
 800082a:	f7ff fe01 	bl	8000430 <HAL_GetTick>
 800082e:	1b80      	subs	r0, r0, r6
 8000830:	2802      	cmp	r0, #2
 8000832:	d9f5      	bls.n	8000820 <HAL_RCC_OscConfig+0x214>
 8000834:	e79b      	b.n	800076e <HAL_RCC_OscConfig+0x162>
 8000836:	68a3      	ldr	r3, [r4, #8]
 8000838:	2b01      	cmp	r3, #1
 800083a:	d906      	bls.n	800084a <HAL_RCC_OscConfig+0x23e>
 800083c:	2b05      	cmp	r3, #5
 800083e:	d004      	beq.n	800084a <HAL_RCC_OscConfig+0x23e>
 8000840:	4819      	ldr	r0, [pc, #100]	; (80008a8 <HAL_RCC_OscConfig+0x29c>)
 8000842:	f44f 71fa 	mov.w	r1, #500	; 0x1f4
 8000846:	f7ff fd59 	bl	80002fc <assert_failed>
 800084a:	4d18      	ldr	r5, [pc, #96]	; (80008ac <HAL_RCC_OscConfig+0x2a0>)
 800084c:	6dab      	ldr	r3, [r5, #88]	; 0x58
 800084e:	00d9      	lsls	r1, r3, #3
 8000850:	d427      	bmi.n	80008a2 <HAL_RCC_OscConfig+0x296>
 8000852:	6dab      	ldr	r3, [r5, #88]	; 0x58
 8000854:	f043 5380 	orr.w	r3, r3, #268435456	; 0x10000000
 8000858:	65ab      	str	r3, [r5, #88]	; 0x58
 800085a:	6dab      	ldr	r3, [r5, #88]	; 0x58
 800085c:	f003 5380 	and.w	r3, r3, #268435456	; 0x10000000
 8000860:	9301      	str	r3, [sp, #4]
 8000862:	9b01      	ldr	r3, [sp, #4]
 8000864:	2701      	movs	r7, #1
 8000866:	4e13      	ldr	r6, [pc, #76]	; (80008b4 <HAL_RCC_OscConfig+0x2a8>)
 8000868:	6833      	ldr	r3, [r6, #0]
 800086a:	05da      	lsls	r2, r3, #23
 800086c:	d524      	bpl.n	80008b8 <HAL_RCC_OscConfig+0x2ac>
 800086e:	68a3      	ldr	r3, [r4, #8]
 8000870:	2b01      	cmp	r3, #1
 8000872:	d132      	bne.n	80008da <HAL_RCC_OscConfig+0x2ce>
 8000874:	f8d5 3090 	ldr.w	r3, [r5, #144]	; 0x90
 8000878:	f043 0301 	orr.w	r3, r3, #1
 800087c:	f8c5 3090 	str.w	r3, [r5, #144]	; 0x90
 8000880:	f7ff fdd6 	bl	8000430 <HAL_GetTick>
 8000884:	f241 3888 	movw	r8, #5000	; 0x1388
 8000888:	4606      	mov	r6, r0
 800088a:	f8d5 3090 	ldr.w	r3, [r5, #144]	; 0x90
 800088e:	0798      	lsls	r0, r3, #30
 8000890:	d549      	bpl.n	8000926 <HAL_RCC_OscConfig+0x31a>
 8000892:	2f00      	cmp	r7, #0
 8000894:	f43f aec9 	beq.w	800062a <HAL_RCC_OscConfig+0x1e>
 8000898:	6dab      	ldr	r3, [r5, #88]	; 0x58
 800089a:	f023 5380 	bic.w	r3, r3, #268435456	; 0x10000000
 800089e:	65ab      	str	r3, [r5, #88]	; 0x58
 80008a0:	e6c3      	b.n	800062a <HAL_RCC_OscConfig+0x1e>
 80008a2:	2700      	movs	r7, #0
 80008a4:	e7df      	b.n	8000866 <HAL_RCC_OscConfig+0x25a>
 80008a6:	bf00      	nop
 80008a8:	0800112e 	.word	0x0800112e
 80008ac:	40021000 	.word	0x40021000
 80008b0:	20000008 	.word	0x20000008
 80008b4:	40007000 	.word	0x40007000
 80008b8:	6833      	ldr	r3, [r6, #0]
 80008ba:	f443 7380 	orr.w	r3, r3, #256	; 0x100
 80008be:	6033      	str	r3, [r6, #0]
 80008c0:	f7ff fdb6 	bl	8000430 <HAL_GetTick>
 80008c4:	4680      	mov	r8, r0
 80008c6:	6833      	ldr	r3, [r6, #0]
 80008c8:	05db      	lsls	r3, r3, #23
 80008ca:	d4d0      	bmi.n	800086e <HAL_RCC_OscConfig+0x262>
 80008cc:	f7ff fdb0 	bl	8000430 <HAL_GetTick>
 80008d0:	eba0 0008 	sub.w	r0, r0, r8
 80008d4:	2802      	cmp	r0, #2
 80008d6:	d9f6      	bls.n	80008c6 <HAL_RCC_OscConfig+0x2ba>
 80008d8:	e749      	b.n	800076e <HAL_RCC_OscConfig+0x162>
 80008da:	2b05      	cmp	r3, #5
 80008dc:	d106      	bne.n	80008ec <HAL_RCC_OscConfig+0x2e0>
 80008de:	f8d5 3090 	ldr.w	r3, [r5, #144]	; 0x90
 80008e2:	f043 0304 	orr.w	r3, r3, #4
 80008e6:	f8c5 3090 	str.w	r3, [r5, #144]	; 0x90
 80008ea:	e7c3      	b.n	8000874 <HAL_RCC_OscConfig+0x268>
 80008ec:	f8d5 2090 	ldr.w	r2, [r5, #144]	; 0x90
 80008f0:	f022 0201 	bic.w	r2, r2, #1
 80008f4:	f8c5 2090 	str.w	r2, [r5, #144]	; 0x90
 80008f8:	f8d5 2090 	ldr.w	r2, [r5, #144]	; 0x90
 80008fc:	f022 0204 	bic.w	r2, r2, #4
 8000900:	f8c5 2090 	str.w	r2, [r5, #144]	; 0x90
 8000904:	2b00      	cmp	r3, #0
 8000906:	d1bb      	bne.n	8000880 <HAL_RCC_OscConfig+0x274>
 8000908:	f7ff fd92 	bl	8000430 <HAL_GetTick>
 800090c:	f241 3888 	movw	r8, #5000	; 0x1388
 8000910:	4606      	mov	r6, r0
 8000912:	f8d5 3090 	ldr.w	r3, [r5, #144]	; 0x90
 8000916:	0799      	lsls	r1, r3, #30
 8000918:	d5bb      	bpl.n	8000892 <HAL_RCC_OscConfig+0x286>
 800091a:	f7ff fd89 	bl	8000430 <HAL_GetTick>
 800091e:	1b80      	subs	r0, r0, r6
 8000920:	4540      	cmp	r0, r8
 8000922:	d9f6      	bls.n	8000912 <HAL_RCC_OscConfig+0x306>
 8000924:	e723      	b.n	800076e <HAL_RCC_OscConfig+0x162>
 8000926:	f7ff fd83 	bl	8000430 <HAL_GetTick>
 800092a:	1b80      	subs	r0, r0, r6
 800092c:	4540      	cmp	r0, r8
 800092e:	d9ac      	bls.n	800088a <HAL_RCC_OscConfig+0x27e>
 8000930:	e71d      	b.n	800076e <HAL_RCC_OscConfig+0x162>
 8000932:	69a3      	ldr	r3, [r4, #24]
 8000934:	2b01      	cmp	r3, #1
 8000936:	d904      	bls.n	8000942 <HAL_RCC_OscConfig+0x336>
 8000938:	4882      	ldr	r0, [pc, #520]	; (8000b44 <HAL_RCC_OscConfig+0x538>)
 800093a:	f240 213b 	movw	r1, #571	; 0x23b
 800093e:	f7ff fcdd 	bl	80002fc <assert_failed>
 8000942:	69a3      	ldr	r3, [r4, #24]
 8000944:	4d80      	ldr	r5, [pc, #512]	; (8000b48 <HAL_RCC_OscConfig+0x53c>)
 8000946:	b19b      	cbz	r3, 8000970 <HAL_RCC_OscConfig+0x364>
 8000948:	f8d5 3098 	ldr.w	r3, [r5, #152]	; 0x98
 800094c:	f043 0301 	orr.w	r3, r3, #1
 8000950:	f8c5 3098 	str.w	r3, [r5, #152]	; 0x98
 8000954:	f7ff fd6c 	bl	8000430 <HAL_GetTick>
 8000958:	4606      	mov	r6, r0
 800095a:	f8d5 3098 	ldr.w	r3, [r5, #152]	; 0x98
 800095e:	079b      	lsls	r3, r3, #30
 8000960:	f53f ae67 	bmi.w	8000632 <HAL_RCC_OscConfig+0x26>
 8000964:	f7ff fd64 	bl	8000430 <HAL_GetTick>
 8000968:	1b80      	subs	r0, r0, r6
 800096a:	2802      	cmp	r0, #2
 800096c:	d9f5      	bls.n	800095a <HAL_RCC_OscConfig+0x34e>
 800096e:	e6fe      	b.n	800076e <HAL_RCC_OscConfig+0x162>
 8000970:	f8d5 3098 	ldr.w	r3, [r5, #152]	; 0x98
 8000974:	f023 0301 	bic.w	r3, r3, #1
 8000978:	f8c5 3098 	str.w	r3, [r5, #152]	; 0x98
 800097c:	f7ff fd58 	bl	8000430 <HAL_GetTick>
 8000980:	4606      	mov	r6, r0
 8000982:	f8d5 3098 	ldr.w	r3, [r5, #152]	; 0x98
 8000986:	079f      	lsls	r7, r3, #30
 8000988:	f57f ae53 	bpl.w	8000632 <HAL_RCC_OscConfig+0x26>
 800098c:	f7ff fd50 	bl	8000430 <HAL_GetTick>
 8000990:	1b80      	subs	r0, r0, r6
 8000992:	2802      	cmp	r0, #2
 8000994:	d9f5      	bls.n	8000982 <HAL_RCC_OscConfig+0x376>
 8000996:	e6ea      	b.n	800076e <HAL_RCC_OscConfig+0x162>
 8000998:	4d6b      	ldr	r5, [pc, #428]	; (8000b48 <HAL_RCC_OscConfig+0x53c>)
 800099a:	68ab      	ldr	r3, [r5, #8]
 800099c:	f003 030c 	and.w	r3, r3, #12
 80009a0:	2b0c      	cmp	r3, #12
 80009a2:	f000 809b 	beq.w	8000adc <HAL_RCC_OscConfig+0x4d0>
 80009a6:	2802      	cmp	r0, #2
 80009a8:	d17d      	bne.n	8000aa6 <HAL_RCC_OscConfig+0x49a>
 80009aa:	6a23      	ldr	r3, [r4, #32]
 80009ac:	b13b      	cbz	r3, 80009be <HAL_RCC_OscConfig+0x3b2>
 80009ae:	3b02      	subs	r3, #2
 80009b0:	2b01      	cmp	r3, #1
 80009b2:	d904      	bls.n	80009be <HAL_RCC_OscConfig+0x3b2>
 80009b4:	4863      	ldr	r0, [pc, #396]	; (8000b44 <HAL_RCC_OscConfig+0x538>)
 80009b6:	f240 216e 	movw	r1, #622	; 0x26e
 80009ba:	f7ff fc9f 	bl	80002fc <assert_failed>
 80009be:	6a63      	ldr	r3, [r4, #36]	; 0x24
 80009c0:	3b01      	subs	r3, #1
 80009c2:	2b0f      	cmp	r3, #15
 80009c4:	d904      	bls.n	80009d0 <HAL_RCC_OscConfig+0x3c4>
 80009c6:	485f      	ldr	r0, [pc, #380]	; (8000b44 <HAL_RCC_OscConfig+0x538>)
 80009c8:	f240 216f 	movw	r1, #623	; 0x26f
 80009cc:	f7ff fc96 	bl	80002fc <assert_failed>
 80009d0:	6aa3      	ldr	r3, [r4, #40]	; 0x28
 80009d2:	3b08      	subs	r3, #8
 80009d4:	2b77      	cmp	r3, #119	; 0x77
 80009d6:	d904      	bls.n	80009e2 <HAL_RCC_OscConfig+0x3d6>
 80009d8:	485a      	ldr	r0, [pc, #360]	; (8000b44 <HAL_RCC_OscConfig+0x538>)
 80009da:	f44f 711c 	mov.w	r1, #624	; 0x270
 80009de:	f7ff fc8d 	bl	80002fc <assert_failed>
 80009e2:	6ae3      	ldr	r3, [r4, #44]	; 0x2c
 80009e4:	3b02      	subs	r3, #2
 80009e6:	2b1d      	cmp	r3, #29
 80009e8:	d904      	bls.n	80009f4 <HAL_RCC_OscConfig+0x3e8>
 80009ea:	4856      	ldr	r0, [pc, #344]	; (8000b44 <HAL_RCC_OscConfig+0x538>)
 80009ec:	f240 2171 	movw	r1, #625	; 0x271
 80009f0:	f7ff fc84 	bl	80002fc <assert_failed>
 80009f4:	6b22      	ldr	r2, [r4, #48]	; 0x30
 80009f6:	2a08      	cmp	r2, #8
 80009f8:	d804      	bhi.n	8000a04 <HAL_RCC_OscConfig+0x3f8>
 80009fa:	f44f 73aa 	mov.w	r3, #340	; 0x154
 80009fe:	40d3      	lsrs	r3, r2
 8000a00:	07de      	lsls	r6, r3, #31
 8000a02:	d404      	bmi.n	8000a0e <HAL_RCC_OscConfig+0x402>
 8000a04:	484f      	ldr	r0, [pc, #316]	; (8000b44 <HAL_RCC_OscConfig+0x538>)
 8000a06:	f240 2172 	movw	r1, #626	; 0x272
 8000a0a:	f7ff fc77 	bl	80002fc <assert_failed>
 8000a0e:	6b62      	ldr	r2, [r4, #52]	; 0x34
 8000a10:	2a08      	cmp	r2, #8
 8000a12:	d804      	bhi.n	8000a1e <HAL_RCC_OscConfig+0x412>
 8000a14:	f44f 73aa 	mov.w	r3, #340	; 0x154
 8000a18:	40d3      	lsrs	r3, r2
 8000a1a:	07d8      	lsls	r0, r3, #31
 8000a1c:	d404      	bmi.n	8000a28 <HAL_RCC_OscConfig+0x41c>
 8000a1e:	4849      	ldr	r0, [pc, #292]	; (8000b44 <HAL_RCC_OscConfig+0x538>)
 8000a20:	f240 2173 	movw	r1, #627	; 0x273
 8000a24:	f7ff fc6a 	bl	80002fc <assert_failed>
 8000a28:	682b      	ldr	r3, [r5, #0]
 8000a2a:	f023 7380 	bic.w	r3, r3, #16777216	; 0x1000000
 8000a2e:	602b      	str	r3, [r5, #0]
 8000a30:	f7ff fcfe 	bl	8000430 <HAL_GetTick>
 8000a34:	4606      	mov	r6, r0
 8000a36:	682b      	ldr	r3, [r5, #0]
 8000a38:	0199      	lsls	r1, r3, #6
 8000a3a:	d42e      	bmi.n	8000a9a <HAL_RCC_OscConfig+0x48e>
 8000a3c:	68ea      	ldr	r2, [r5, #12]
 8000a3e:	4b43      	ldr	r3, [pc, #268]	; (8000b4c <HAL_RCC_OscConfig+0x540>)
 8000a40:	4013      	ands	r3, r2
 8000a42:	6a22      	ldr	r2, [r4, #32]
 8000a44:	4313      	orrs	r3, r2
 8000a46:	6aa2      	ldr	r2, [r4, #40]	; 0x28
 8000a48:	ea43 2302 	orr.w	r3, r3, r2, lsl #8
 8000a4c:	6ae2      	ldr	r2, [r4, #44]	; 0x2c
 8000a4e:	ea43 63c2 	orr.w	r3, r3, r2, lsl #27
 8000a52:	6a62      	ldr	r2, [r4, #36]	; 0x24
 8000a54:	3a01      	subs	r2, #1
 8000a56:	ea43 1302 	orr.w	r3, r3, r2, lsl #4
 8000a5a:	6b22      	ldr	r2, [r4, #48]	; 0x30
 8000a5c:	0852      	lsrs	r2, r2, #1
 8000a5e:	3a01      	subs	r2, #1
 8000a60:	ea43 5342 	orr.w	r3, r3, r2, lsl #21
 8000a64:	6b62      	ldr	r2, [r4, #52]	; 0x34
 8000a66:	0852      	lsrs	r2, r2, #1
 8000a68:	3a01      	subs	r2, #1
 8000a6a:	ea43 6342 	orr.w	r3, r3, r2, lsl #25
 8000a6e:	60eb      	str	r3, [r5, #12]
 8000a70:	682b      	ldr	r3, [r5, #0]
 8000a72:	f043 7380 	orr.w	r3, r3, #16777216	; 0x1000000
 8000a76:	602b      	str	r3, [r5, #0]
 8000a78:	68eb      	ldr	r3, [r5, #12]
 8000a7a:	f043 7380 	orr.w	r3, r3, #16777216	; 0x1000000
 8000a7e:	60eb      	str	r3, [r5, #12]
 8000a80:	f7ff fcd6 	bl	8000430 <HAL_GetTick>
 8000a84:	4604      	mov	r4, r0
 8000a86:	682b      	ldr	r3, [r5, #0]
 8000a88:	019a      	lsls	r2, r3, #6
 8000a8a:	f53f adde 	bmi.w	800064a <HAL_RCC_OscConfig+0x3e>
 8000a8e:	f7ff fccf 	bl	8000430 <HAL_GetTick>
 8000a92:	1b00      	subs	r0, r0, r4
 8000a94:	2802      	cmp	r0, #2
 8000a96:	d9f6      	bls.n	8000a86 <HAL_RCC_OscConfig+0x47a>
 8000a98:	e669      	b.n	800076e <HAL_RCC_OscConfig+0x162>
 8000a9a:	f7ff fcc9 	bl	8000430 <HAL_GetTick>
 8000a9e:	1b80      	subs	r0, r0, r6
 8000aa0:	2802      	cmp	r0, #2
 8000aa2:	d9c8      	bls.n	8000a36 <HAL_RCC_OscConfig+0x42a>
 8000aa4:	e663      	b.n	800076e <HAL_RCC_OscConfig+0x162>
 8000aa6:	682b      	ldr	r3, [r5, #0]
 8000aa8:	f023 7380 	bic.w	r3, r3, #16777216	; 0x1000000
 8000aac:	602b      	str	r3, [r5, #0]
 8000aae:	68eb      	ldr	r3, [r5, #12]
 8000ab0:	f023 0303 	bic.w	r3, r3, #3
 8000ab4:	60eb      	str	r3, [r5, #12]
 8000ab6:	68eb      	ldr	r3, [r5, #12]
 8000ab8:	f023 7388 	bic.w	r3, r3, #17825792	; 0x1100000
 8000abc:	f423 3380 	bic.w	r3, r3, #65536	; 0x10000
 8000ac0:	60eb      	str	r3, [r5, #12]
 8000ac2:	f7ff fcb5 	bl	8000430 <HAL_GetTick>
 8000ac6:	4604      	mov	r4, r0
 8000ac8:	682b      	ldr	r3, [r5, #0]
 8000aca:	019b      	lsls	r3, r3, #6
 8000acc:	f57f adbd 	bpl.w	800064a <HAL_RCC_OscConfig+0x3e>
 8000ad0:	f7ff fcae 	bl	8000430 <HAL_GetTick>
 8000ad4:	1b00      	subs	r0, r0, r4
 8000ad6:	2802      	cmp	r0, #2
 8000ad8:	d9f6      	bls.n	8000ac8 <HAL_RCC_OscConfig+0x4bc>
 8000ada:	e648      	b.n	800076e <HAL_RCC_OscConfig+0x162>
 8000adc:	2801      	cmp	r0, #1
 8000ade:	f43f ae47 	beq.w	8000770 <HAL_RCC_OscConfig+0x164>
 8000ae2:	68eb      	ldr	r3, [r5, #12]
 8000ae4:	6a22      	ldr	r2, [r4, #32]
 8000ae6:	f003 0103 	and.w	r1, r3, #3
 8000aea:	4291      	cmp	r1, r2
 8000aec:	f47f add6 	bne.w	800069c <HAL_RCC_OscConfig+0x90>
 8000af0:	6a61      	ldr	r1, [r4, #36]	; 0x24
 8000af2:	f003 02f0 	and.w	r2, r3, #240	; 0xf0
 8000af6:	3901      	subs	r1, #1
 8000af8:	ebb2 1f01 	cmp.w	r2, r1, lsl #4
 8000afc:	f47f adce 	bne.w	800069c <HAL_RCC_OscConfig+0x90>
 8000b00:	6aa1      	ldr	r1, [r4, #40]	; 0x28
 8000b02:	f403 42fe 	and.w	r2, r3, #32512	; 0x7f00
 8000b06:	ebb2 2f01 	cmp.w	r2, r1, lsl #8
 8000b0a:	f47f adc7 	bne.w	800069c <HAL_RCC_OscConfig+0x90>
 8000b0e:	6ae1      	ldr	r1, [r4, #44]	; 0x2c
 8000b10:	f003 4278 	and.w	r2, r3, #4160749568	; 0xf8000000
 8000b14:	ebb2 6fc1 	cmp.w	r2, r1, lsl #27
 8000b18:	f47f adc0 	bne.w	800069c <HAL_RCC_OscConfig+0x90>
 8000b1c:	6b22      	ldr	r2, [r4, #48]	; 0x30
 8000b1e:	0852      	lsrs	r2, r2, #1
 8000b20:	f403 01c0 	and.w	r1, r3, #6291456	; 0x600000
 8000b24:	3a01      	subs	r2, #1
 8000b26:	ebb1 5f42 	cmp.w	r1, r2, lsl #21
 8000b2a:	f47f adb7 	bne.w	800069c <HAL_RCC_OscConfig+0x90>
 8000b2e:	6b62      	ldr	r2, [r4, #52]	; 0x34
 8000b30:	0852      	lsrs	r2, r2, #1
 8000b32:	f003 63c0 	and.w	r3, r3, #100663296	; 0x6000000
 8000b36:	3a01      	subs	r2, #1
 8000b38:	ebb3 6f42 	cmp.w	r3, r2, lsl #25
 8000b3c:	f43f ad85 	beq.w	800064a <HAL_RCC_OscConfig+0x3e>
 8000b40:	e5ac      	b.n	800069c <HAL_RCC_OscConfig+0x90>
 8000b42:	bf00      	nop
 8000b44:	0800112e 	.word	0x0800112e
 8000b48:	40021000 	.word	0x40021000
 8000b4c:	019f800c 	.word	0x019f800c

08000b50 <HAL_RCC_GetSysClockFreq>:
 8000b50:	4b17      	ldr	r3, [pc, #92]	; (8000bb0 <HAL_RCC_GetSysClockFreq+0x60>)
 8000b52:	689a      	ldr	r2, [r3, #8]
 8000b54:	f002 020c 	and.w	r2, r2, #12
 8000b58:	2a04      	cmp	r2, #4
 8000b5a:	d023      	beq.n	8000ba4 <HAL_RCC_GetSysClockFreq+0x54>
 8000b5c:	689a      	ldr	r2, [r3, #8]
 8000b5e:	f002 020c 	and.w	r2, r2, #12
 8000b62:	2a08      	cmp	r2, #8
 8000b64:	d020      	beq.n	8000ba8 <HAL_RCC_GetSysClockFreq+0x58>
 8000b66:	689a      	ldr	r2, [r3, #8]
 8000b68:	f002 020c 	and.w	r2, r2, #12
 8000b6c:	2a0c      	cmp	r2, #12
 8000b6e:	d11d      	bne.n	8000bac <HAL_RCC_GetSysClockFreq+0x5c>
 8000b70:	68d9      	ldr	r1, [r3, #12]
 8000b72:	68da      	ldr	r2, [r3, #12]
 8000b74:	68d8      	ldr	r0, [r3, #12]
 8000b76:	68db      	ldr	r3, [r3, #12]
 8000b78:	f001 0103 	and.w	r1, r1, #3
 8000b7c:	f3c3 6341 	ubfx	r3, r3, #25, #2
 8000b80:	2903      	cmp	r1, #3
 8000b82:	f3c2 1203 	ubfx	r2, r2, #4, #4
 8000b86:	f3c0 2006 	ubfx	r0, r0, #8, #7
 8000b8a:	f103 0301 	add.w	r3, r3, #1
 8000b8e:	bf0c      	ite	eq
 8000b90:	4908      	ldreq	r1, [pc, #32]	; (8000bb4 <HAL_RCC_GetSysClockFreq+0x64>)
 8000b92:	4909      	ldrne	r1, [pc, #36]	; (8000bb8 <HAL_RCC_GetSysClockFreq+0x68>)
 8000b94:	005b      	lsls	r3, r3, #1
 8000b96:	3201      	adds	r2, #1
 8000b98:	fbb1 f2f2 	udiv	r2, r1, r2
 8000b9c:	4350      	muls	r0, r2
 8000b9e:	fbb0 f0f3 	udiv	r0, r0, r3
 8000ba2:	4770      	bx	lr
 8000ba4:	4804      	ldr	r0, [pc, #16]	; (8000bb8 <HAL_RCC_GetSysClockFreq+0x68>)
 8000ba6:	4770      	bx	lr
 8000ba8:	4802      	ldr	r0, [pc, #8]	; (8000bb4 <HAL_RCC_GetSysClockFreq+0x64>)
 8000baa:	4770      	bx	lr
 8000bac:	2000      	movs	r0, #0
 8000bae:	4770      	bx	lr
 8000bb0:	40021000 	.word	0x40021000
 8000bb4:	007a1200 	.word	0x007a1200
 8000bb8:	00f42400 	.word	0x00f42400

08000bbc <HAL_RCC_ClockConfig>:
 8000bbc:	e92d 43f8 	stmdb	sp!, {r3, r4, r5, r6, r7, r8, r9, lr}
 8000bc0:	460e      	mov	r6, r1
 8000bc2:	4604      	mov	r4, r0
 8000bc4:	b910      	cbnz	r0, 8000bcc <HAL_RCC_ClockConfig+0x10>
 8000bc6:	2001      	movs	r0, #1
 8000bc8:	e8bd 83f8 	ldmia.w	sp!, {r3, r4, r5, r6, r7, r8, r9, pc}
 8000bcc:	6803      	ldr	r3, [r0, #0]
 8000bce:	071a      	lsls	r2, r3, #28
 8000bd0:	d002      	beq.n	8000bd8 <HAL_RCC_ClockConfig+0x1c>
 8000bd2:	f033 030f 	bics.w	r3, r3, #15
 8000bd6:	d004      	beq.n	8000be2 <HAL_RCC_ClockConfig+0x26>
 8000bd8:	4896      	ldr	r0, [pc, #600]	; (8000e34 <HAL_RCC_ClockConfig+0x278>)
 8000bda:	f44f 7143 	mov.w	r1, #780	; 0x30c
 8000bde:	f7ff fb8d 	bl	80002fc <assert_failed>
 8000be2:	2e0f      	cmp	r6, #15
 8000be4:	d904      	bls.n	8000bf0 <HAL_RCC_ClockConfig+0x34>
 8000be6:	4893      	ldr	r0, [pc, #588]	; (8000e34 <HAL_RCC_ClockConfig+0x278>)
 8000be8:	f240 310d 	movw	r1, #781	; 0x30d
 8000bec:	f7ff fb86 	bl	80002fc <assert_failed>
 8000bf0:	4a91      	ldr	r2, [pc, #580]	; (8000e38 <HAL_RCC_ClockConfig+0x27c>)
 8000bf2:	6813      	ldr	r3, [r2, #0]
 8000bf4:	f003 030f 	and.w	r3, r3, #15
 8000bf8:	42b3      	cmp	r3, r6
 8000bfa:	d36e      	bcc.n	8000cda <HAL_RCC_ClockConfig+0x11e>
 8000bfc:	6827      	ldr	r7, [r4, #0]
 8000bfe:	f017 0701 	ands.w	r7, r7, #1
 8000c02:	d176      	bne.n	8000cf2 <HAL_RCC_ClockConfig+0x136>
 8000c04:	6823      	ldr	r3, [r4, #0]
 8000c06:	0799      	lsls	r1, r3, #30
 8000c08:	f140 80dd 	bpl.w	8000dc6 <HAL_RCC_ClockConfig+0x20a>
 8000c0c:	4d8b      	ldr	r5, [pc, #556]	; (8000e3c <HAL_RCC_ClockConfig+0x280>)
 8000c0e:	f013 0f04 	tst.w	r3, #4
 8000c12:	bf1e      	ittt	ne
 8000c14:	68aa      	ldrne	r2, [r5, #8]
 8000c16:	f442 62e0 	orrne.w	r2, r2, #1792	; 0x700
 8000c1a:	60aa      	strne	r2, [r5, #8]
 8000c1c:	071a      	lsls	r2, r3, #28
 8000c1e:	bf41      	itttt	mi
 8000c20:	68ab      	ldrmi	r3, [r5, #8]
 8000c22:	f423 537c 	bicmi.w	r3, r3, #16128	; 0x3f00
 8000c26:	f443 63e0 	orrmi.w	r3, r3, #1792	; 0x700
 8000c2a:	60ab      	strmi	r3, [r5, #8]
 8000c2c:	68a3      	ldr	r3, [r4, #8]
 8000c2e:	f033 0280 	bics.w	r2, r3, #128	; 0x80
 8000c32:	d012      	beq.n	8000c5a <HAL_RCC_ClockConfig+0x9e>
 8000c34:	f023 0220 	bic.w	r2, r3, #32
 8000c38:	2a90      	cmp	r2, #144	; 0x90
 8000c3a:	d00e      	beq.n	8000c5a <HAL_RCC_ClockConfig+0x9e>
 8000c3c:	f023 0240 	bic.w	r2, r3, #64	; 0x40
 8000c40:	2aa0      	cmp	r2, #160	; 0xa0
 8000c42:	d00a      	beq.n	8000c5a <HAL_RCC_ClockConfig+0x9e>
 8000c44:	f023 0210 	bic.w	r2, r3, #16
 8000c48:	2ac0      	cmp	r2, #192	; 0xc0
 8000c4a:	d006      	beq.n	8000c5a <HAL_RCC_ClockConfig+0x9e>
 8000c4c:	2bf0      	cmp	r3, #240	; 0xf0
 8000c4e:	d004      	beq.n	8000c5a <HAL_RCC_ClockConfig+0x9e>
 8000c50:	4878      	ldr	r0, [pc, #480]	; (8000e34 <HAL_RCC_ClockConfig+0x278>)
 8000c52:	f240 317b 	movw	r1, #891	; 0x37b
 8000c56:	f7ff fb51 	bl	80002fc <assert_failed>
 8000c5a:	68ab      	ldr	r3, [r5, #8]
 8000c5c:	68a2      	ldr	r2, [r4, #8]
 8000c5e:	f023 03f0 	bic.w	r3, r3, #240	; 0xf0
 8000c62:	4313      	orrs	r3, r2
 8000c64:	60ab      	str	r3, [r5, #8]
 8000c66:	4d74      	ldr	r5, [pc, #464]	; (8000e38 <HAL_RCC_ClockConfig+0x27c>)
 8000c68:	682b      	ldr	r3, [r5, #0]
 8000c6a:	f003 030f 	and.w	r3, r3, #15
 8000c6e:	42b3      	cmp	r3, r6
 8000c70:	f200 80b1 	bhi.w	8000dd6 <HAL_RCC_ClockConfig+0x21a>
 8000c74:	6823      	ldr	r3, [r4, #0]
 8000c76:	4d71      	ldr	r5, [pc, #452]	; (8000e3c <HAL_RCC_ClockConfig+0x280>)
 8000c78:	f013 0f04 	tst.w	r3, #4
 8000c7c:	f040 80c1 	bne.w	8000e02 <HAL_RCC_ClockConfig+0x246>
 8000c80:	6823      	ldr	r3, [r4, #0]
 8000c82:	071b      	lsls	r3, r3, #28
 8000c84:	d517      	bpl.n	8000cb6 <HAL_RCC_ClockConfig+0xfa>
 8000c86:	6923      	ldr	r3, [r4, #16]
 8000c88:	f433 6280 	bics.w	r2, r3, #1024	; 0x400
 8000c8c:	d00c      	beq.n	8000ca8 <HAL_RCC_ClockConfig+0xec>
 8000c8e:	f423 7200 	bic.w	r2, r3, #512	; 0x200
 8000c92:	f5b2 6fa0 	cmp.w	r2, #1280	; 0x500
 8000c96:	d007      	beq.n	8000ca8 <HAL_RCC_ClockConfig+0xec>
 8000c98:	f5b3 6fc0 	cmp.w	r3, #1536	; 0x600
 8000c9c:	d004      	beq.n	8000ca8 <HAL_RCC_ClockConfig+0xec>
 8000c9e:	4865      	ldr	r0, [pc, #404]	; (8000e34 <HAL_RCC_ClockConfig+0x278>)
 8000ca0:	f44f 7169 	mov.w	r1, #932	; 0x3a4
 8000ca4:	f7ff fb2a 	bl	80002fc <assert_failed>
 8000ca8:	68ab      	ldr	r3, [r5, #8]
 8000caa:	6922      	ldr	r2, [r4, #16]
 8000cac:	f423 5360 	bic.w	r3, r3, #14336	; 0x3800
 8000cb0:	ea43 03c2 	orr.w	r3, r3, r2, lsl #3
 8000cb4:	60ab      	str	r3, [r5, #8]
 8000cb6:	f7ff ff4b 	bl	8000b50 <HAL_RCC_GetSysClockFreq>
 8000cba:	68ab      	ldr	r3, [r5, #8]
 8000cbc:	4a60      	ldr	r2, [pc, #384]	; (8000e40 <HAL_RCC_ClockConfig+0x284>)
 8000cbe:	f3c3 1303 	ubfx	r3, r3, #4, #4
 8000cc2:	5cd3      	ldrb	r3, [r2, r3]
 8000cc4:	f003 031f 	and.w	r3, r3, #31
 8000cc8:	40d8      	lsrs	r0, r3
 8000cca:	4b5e      	ldr	r3, [pc, #376]	; (8000e44 <HAL_RCC_ClockConfig+0x288>)
 8000ccc:	6018      	str	r0, [r3, #0]
 8000cce:	4b5e      	ldr	r3, [pc, #376]	; (8000e48 <HAL_RCC_ClockConfig+0x28c>)
 8000cd0:	6818      	ldr	r0, [r3, #0]
 8000cd2:	e8bd 43f8 	ldmia.w	sp!, {r3, r4, r5, r6, r7, r8, r9, lr}
 8000cd6:	f7ff bb69 	b.w	80003ac <HAL_InitTick>
 8000cda:	6813      	ldr	r3, [r2, #0]
 8000cdc:	f023 030f 	bic.w	r3, r3, #15
 8000ce0:	4333      	orrs	r3, r6
 8000ce2:	6013      	str	r3, [r2, #0]
 8000ce4:	6813      	ldr	r3, [r2, #0]
 8000ce6:	f003 030f 	and.w	r3, r3, #15
 8000cea:	42b3      	cmp	r3, r6
 8000cec:	f47f af6b 	bne.w	8000bc6 <HAL_RCC_ClockConfig+0xa>
 8000cf0:	e784      	b.n	8000bfc <HAL_RCC_ClockConfig+0x40>
 8000cf2:	6863      	ldr	r3, [r4, #4]
 8000cf4:	3b01      	subs	r3, #1
 8000cf6:	2b02      	cmp	r3, #2
 8000cf8:	d904      	bls.n	8000d04 <HAL_RCC_ClockConfig+0x148>
 8000cfa:	484e      	ldr	r0, [pc, #312]	; (8000e34 <HAL_RCC_ClockConfig+0x278>)
 8000cfc:	f44f 7149 	mov.w	r1, #804	; 0x324
 8000d00:	f7ff fafc 	bl	80002fc <assert_failed>
 8000d04:	6863      	ldr	r3, [r4, #4]
 8000d06:	4d4d      	ldr	r5, [pc, #308]	; (8000e3c <HAL_RCC_ClockConfig+0x280>)
 8000d08:	2b03      	cmp	r3, #3
 8000d0a:	d14c      	bne.n	8000da6 <HAL_RCC_ClockConfig+0x1ea>
 8000d0c:	682b      	ldr	r3, [r5, #0]
 8000d0e:	019f      	lsls	r7, r3, #6
 8000d10:	f57f af59 	bpl.w	8000bc6 <HAL_RCC_ClockConfig+0xa>
 8000d14:	68eb      	ldr	r3, [r5, #12]
 8000d16:	68ea      	ldr	r2, [r5, #12]
 8000d18:	f003 0303 	and.w	r3, r3, #3
 8000d1c:	2b03      	cmp	r3, #3
 8000d1e:	68eb      	ldr	r3, [r5, #12]
 8000d20:	bf0c      	ite	eq
 8000d22:	494a      	ldreq	r1, [pc, #296]	; (8000e4c <HAL_RCC_ClockConfig+0x290>)
 8000d24:	494a      	ldrne	r1, [pc, #296]	; (8000e50 <HAL_RCC_ClockConfig+0x294>)
 8000d26:	f3c2 1203 	ubfx	r2, r2, #4, #4
 8000d2a:	f3c3 2306 	ubfx	r3, r3, #8, #7
 8000d2e:	3201      	adds	r2, #1
 8000d30:	fbb1 f2f2 	udiv	r2, r1, r2
 8000d34:	4353      	muls	r3, r2
 8000d36:	68ea      	ldr	r2, [r5, #12]
 8000d38:	f3c2 6241 	ubfx	r2, r2, #25, #2
 8000d3c:	3201      	adds	r2, #1
 8000d3e:	0052      	lsls	r2, r2, #1
 8000d40:	fbb3 f3f2 	udiv	r3, r3, r2
 8000d44:	4a43      	ldr	r2, [pc, #268]	; (8000e54 <HAL_RCC_ClockConfig+0x298>)
 8000d46:	4293      	cmp	r3, r2
 8000d48:	d81b      	bhi.n	8000d82 <HAL_RCC_ClockConfig+0x1c6>
 8000d4a:	2700      	movs	r7, #0
 8000d4c:	68ab      	ldr	r3, [r5, #8]
 8000d4e:	6862      	ldr	r2, [r4, #4]
 8000d50:	f023 0303 	bic.w	r3, r3, #3
 8000d54:	4313      	orrs	r3, r2
 8000d56:	60ab      	str	r3, [r5, #8]
 8000d58:	f7ff fb6a 	bl	8000430 <HAL_GetTick>
 8000d5c:	f241 3988 	movw	r9, #5000	; 0x1388
 8000d60:	4680      	mov	r8, r0
 8000d62:	68ab      	ldr	r3, [r5, #8]
 8000d64:	6862      	ldr	r2, [r4, #4]
 8000d66:	f003 030c 	and.w	r3, r3, #12
 8000d6a:	ebb3 0f82 	cmp.w	r3, r2, lsl #2
 8000d6e:	f43f af49 	beq.w	8000c04 <HAL_RCC_ClockConfig+0x48>
 8000d72:	f7ff fb5d 	bl	8000430 <HAL_GetTick>
 8000d76:	eba0 0008 	sub.w	r0, r0, r8
 8000d7a:	4548      	cmp	r0, r9
 8000d7c:	d9f1      	bls.n	8000d62 <HAL_RCC_ClockConfig+0x1a6>
 8000d7e:	2003      	movs	r0, #3
 8000d80:	e722      	b.n	8000bc8 <HAL_RCC_ClockConfig+0xc>
 8000d82:	68ab      	ldr	r3, [r5, #8]
 8000d84:	f013 0ff0 	tst.w	r3, #240	; 0xf0
 8000d88:	d005      	beq.n	8000d96 <HAL_RCC_ClockConfig+0x1da>
 8000d8a:	6823      	ldr	r3, [r4, #0]
 8000d8c:	0798      	lsls	r0, r3, #30
 8000d8e:	d5dc      	bpl.n	8000d4a <HAL_RCC_ClockConfig+0x18e>
 8000d90:	68a3      	ldr	r3, [r4, #8]
 8000d92:	2b00      	cmp	r3, #0
 8000d94:	d1d9      	bne.n	8000d4a <HAL_RCC_ClockConfig+0x18e>
 8000d96:	68ab      	ldr	r3, [r5, #8]
 8000d98:	f023 03f0 	bic.w	r3, r3, #240	; 0xf0
 8000d9c:	f043 0380 	orr.w	r3, r3, #128	; 0x80
 8000da0:	60ab      	str	r3, [r5, #8]
 8000da2:	2780      	movs	r7, #128	; 0x80
 8000da4:	e7d2      	b.n	8000d4c <HAL_RCC_ClockConfig+0x190>
 8000da6:	2b02      	cmp	r3, #2
 8000da8:	682b      	ldr	r3, [r5, #0]
 8000daa:	d109      	bne.n	8000dc0 <HAL_RCC_ClockConfig+0x204>
 8000dac:	f413 3f00 	tst.w	r3, #131072	; 0x20000
 8000db0:	f43f af09 	beq.w	8000bc6 <HAL_RCC_ClockConfig+0xa>
 8000db4:	f7ff fecc 	bl	8000b50 <HAL_RCC_GetSysClockFreq>
 8000db8:	4b26      	ldr	r3, [pc, #152]	; (8000e54 <HAL_RCC_ClockConfig+0x298>)
 8000dba:	4298      	cmp	r0, r3
 8000dbc:	d9c5      	bls.n	8000d4a <HAL_RCC_ClockConfig+0x18e>
 8000dbe:	e7ea      	b.n	8000d96 <HAL_RCC_ClockConfig+0x1da>
 8000dc0:	f413 6f80 	tst.w	r3, #1024	; 0x400
 8000dc4:	e7f4      	b.n	8000db0 <HAL_RCC_ClockConfig+0x1f4>
 8000dc6:	2f80      	cmp	r7, #128	; 0x80
 8000dc8:	bf01      	itttt	eq
 8000dca:	4a1c      	ldreq	r2, [pc, #112]	; (8000e3c <HAL_RCC_ClockConfig+0x280>)
 8000dcc:	6893      	ldreq	r3, [r2, #8]
 8000dce:	f023 03f0 	biceq.w	r3, r3, #240	; 0xf0
 8000dd2:	6093      	streq	r3, [r2, #8]
 8000dd4:	e747      	b.n	8000c66 <HAL_RCC_ClockConfig+0xaa>
 8000dd6:	682b      	ldr	r3, [r5, #0]
 8000dd8:	f023 030f 	bic.w	r3, r3, #15
 8000ddc:	4333      	orrs	r3, r6
 8000dde:	602b      	str	r3, [r5, #0]
 8000de0:	f7ff fb26 	bl	8000430 <HAL_GetTick>
 8000de4:	f241 3888 	movw	r8, #5000	; 0x1388
 8000de8:	4607      	mov	r7, r0
 8000dea:	682b      	ldr	r3, [r5, #0]
 8000dec:	f003 030f 	and.w	r3, r3, #15
 8000df0:	42b3      	cmp	r3, r6
 8000df2:	f43f af3f 	beq.w	8000c74 <HAL_RCC_ClockConfig+0xb8>
 8000df6:	f7ff fb1b 	bl	8000430 <HAL_GetTick>
 8000dfa:	1bc0      	subs	r0, r0, r7
 8000dfc:	4540      	cmp	r0, r8
 8000dfe:	d9f4      	bls.n	8000dea <HAL_RCC_ClockConfig+0x22e>
 8000e00:	e7bd      	b.n	8000d7e <HAL_RCC_ClockConfig+0x1c2>
 8000e02:	68e3      	ldr	r3, [r4, #12]
 8000e04:	f433 6280 	bics.w	r2, r3, #1024	; 0x400
 8000e08:	d00c      	beq.n	8000e24 <HAL_RCC_ClockConfig+0x268>
 8000e0a:	f423 7200 	bic.w	r2, r3, #512	; 0x200
 8000e0e:	f5b2 6fa0 	cmp.w	r2, #1280	; 0x500
 8000e12:	d007      	beq.n	8000e24 <HAL_RCC_ClockConfig+0x268>
 8000e14:	f5b3 6fc0 	cmp.w	r3, #1536	; 0x600
 8000e18:	d004      	beq.n	8000e24 <HAL_RCC_ClockConfig+0x268>
 8000e1a:	4806      	ldr	r0, [pc, #24]	; (8000e34 <HAL_RCC_ClockConfig+0x278>)
 8000e1c:	f240 319d 	movw	r1, #925	; 0x39d
 8000e20:	f7ff fa6c 	bl	80002fc <assert_failed>
 8000e24:	68ab      	ldr	r3, [r5, #8]
 8000e26:	68e2      	ldr	r2, [r4, #12]
 8000e28:	f423 63e0 	bic.w	r3, r3, #1792	; 0x700
 8000e2c:	4313      	orrs	r3, r2
 8000e2e:	60ab      	str	r3, [r5, #8]
 8000e30:	e726      	b.n	8000c80 <HAL_RCC_ClockConfig+0xc4>
 8000e32:	bf00      	nop
 8000e34:	0800112e 	.word	0x0800112e
 8000e38:	40022000 	.word	0x40022000
 8000e3c:	40021000 	.word	0x40021000
 8000e40:	080010a8 	.word	0x080010a8
 8000e44:	20000000 	.word	0x20000000
 8000e48:	20000008 	.word	0x20000008
 8000e4c:	007a1200 	.word	0x007a1200
 8000e50:	00f42400 	.word	0x00f42400
 8000e54:	04c4b400 	.word	0x04c4b400

08000e58 <LL_GPIO_Init>:
 8000e58:	f1b0 4f90 	cmp.w	r0, #1207959552	; 0x48000000
 8000e5c:	e92d 47f0 	stmdb	sp!, {r4, r5, r6, r7, r8, r9, sl, lr}
 8000e60:	4605      	mov	r5, r0
 8000e62:	4689      	mov	r9, r1
 8000e64:	d01a      	beq.n	8000e9c <LL_GPIO_Init+0x44>
 8000e66:	4b72      	ldr	r3, [pc, #456]	; (8001030 <LL_GPIO_Init+0x1d8>)
 8000e68:	4298      	cmp	r0, r3
 8000e6a:	d017      	beq.n	8000e9c <LL_GPIO_Init+0x44>
 8000e6c:	f503 6380 	add.w	r3, r3, #1024	; 0x400
 8000e70:	4298      	cmp	r0, r3
 8000e72:	d013      	beq.n	8000e9c <LL_GPIO_Init+0x44>
 8000e74:	f503 6380 	add.w	r3, r3, #1024	; 0x400
 8000e78:	4298      	cmp	r0, r3
 8000e7a:	d00f      	beq.n	8000e9c <LL_GPIO_Init+0x44>
 8000e7c:	f503 6380 	add.w	r3, r3, #1024	; 0x400
 8000e80:	4298      	cmp	r0, r3
 8000e82:	d00b      	beq.n	8000e9c <LL_GPIO_Init+0x44>
 8000e84:	f503 6380 	add.w	r3, r3, #1024	; 0x400
 8000e88:	4298      	cmp	r0, r3
 8000e8a:	d007      	beq.n	8000e9c <LL_GPIO_Init+0x44>
 8000e8c:	f503 6380 	add.w	r3, r3, #1024	; 0x400
 8000e90:	4298      	cmp	r0, r3
 8000e92:	d003      	beq.n	8000e9c <LL_GPIO_Init+0x44>
 8000e94:	4867      	ldr	r0, [pc, #412]	; (8001034 <LL_GPIO_Init+0x1dc>)
 8000e96:	21ae      	movs	r1, #174	; 0xae
 8000e98:	f7ff fa30 	bl	80002fc <assert_failed>
 8000e9c:	f8d9 3000 	ldr.w	r3, [r9]
 8000ea0:	f64f 72fe 	movw	r2, #65534	; 0xfffe
 8000ea4:	3b01      	subs	r3, #1
 8000ea6:	4293      	cmp	r3, r2
 8000ea8:	d903      	bls.n	8000eb2 <LL_GPIO_Init+0x5a>
 8000eaa:	4862      	ldr	r0, [pc, #392]	; (8001034 <LL_GPIO_Init+0x1dc>)
 8000eac:	21af      	movs	r1, #175	; 0xaf
 8000eae:	f7ff fa25 	bl	80002fc <assert_failed>
 8000eb2:	f8d9 3004 	ldr.w	r3, [r9, #4]
 8000eb6:	2b03      	cmp	r3, #3
 8000eb8:	d903      	bls.n	8000ec2 <LL_GPIO_Init+0x6a>
 8000eba:	485e      	ldr	r0, [pc, #376]	; (8001034 <LL_GPIO_Init+0x1dc>)
 8000ebc:	21b0      	movs	r1, #176	; 0xb0
 8000ebe:	f7ff fa1d 	bl	80002fc <assert_failed>
 8000ec2:	f8d9 3010 	ldr.w	r3, [r9, #16]
 8000ec6:	2b02      	cmp	r3, #2
 8000ec8:	d903      	bls.n	8000ed2 <LL_GPIO_Init+0x7a>
 8000eca:	485a      	ldr	r0, [pc, #360]	; (8001034 <LL_GPIO_Init+0x1dc>)
 8000ecc:	21b1      	movs	r1, #177	; 0xb1
 8000ece:	f7ff fa15 	bl	80002fc <assert_failed>
 8000ed2:	f8d9 6000 	ldr.w	r6, [r9]
 8000ed6:	fa96 f6a6 	rbit	r6, r6
 8000eda:	f8df a158 	ldr.w	sl, [pc, #344]	; 8001034 <LL_GPIO_Init+0x1dc>
 8000ede:	fab6 f686 	clz	r6, r6
 8000ee2:	f04f 0801 	mov.w	r8, #1
 8000ee6:	2703      	movs	r7, #3
 8000ee8:	f8d9 4000 	ldr.w	r4, [r9]
 8000eec:	fa34 f006 	lsrs.w	r0, r4, r6
 8000ef0:	d101      	bne.n	8000ef6 <LL_GPIO_Init+0x9e>
 8000ef2:	e8bd 87f0 	ldmia.w	sp!, {r4, r5, r6, r7, r8, r9, sl, pc}
 8000ef6:	fa08 f306 	lsl.w	r3, r8, r6
 8000efa:	401c      	ands	r4, r3
 8000efc:	d07f      	beq.n	8000ffe <LL_GPIO_Init+0x1a6>
 8000efe:	f8d9 3004 	ldr.w	r3, [r9, #4]
 8000f02:	3b01      	subs	r3, #1
 8000f04:	2b01      	cmp	r3, #1
 8000f06:	d82d      	bhi.n	8000f64 <LL_GPIO_Init+0x10c>
 8000f08:	f8d9 3008 	ldr.w	r3, [r9, #8]
 8000f0c:	2b03      	cmp	r3, #3
 8000f0e:	d903      	bls.n	8000f18 <LL_GPIO_Init+0xc0>
 8000f10:	21c2      	movs	r1, #194	; 0xc2
 8000f12:	4650      	mov	r0, sl
 8000f14:	f7ff f9f2 	bl	80002fc <assert_failed>
 8000f18:	f8d9 3008 	ldr.w	r3, [r9, #8]
 8000f1c:	68a9      	ldr	r1, [r5, #8]
 8000f1e:	fa94 f2a4 	rbit	r2, r4
 8000f22:	fab2 f282 	clz	r2, r2
 8000f26:	0052      	lsls	r2, r2, #1
 8000f28:	fa07 f202 	lsl.w	r2, r7, r2
 8000f2c:	ea21 0202 	bic.w	r2, r1, r2
 8000f30:	fa94 f1a4 	rbit	r1, r4
 8000f34:	fab1 f181 	clz	r1, r1
 8000f38:	0049      	lsls	r1, r1, #1
 8000f3a:	408b      	lsls	r3, r1
 8000f3c:	4313      	orrs	r3, r2
 8000f3e:	60ab      	str	r3, [r5, #8]
 8000f40:	f8d9 300c 	ldr.w	r3, [r9, #12]
 8000f44:	2b01      	cmp	r3, #1
 8000f46:	d903      	bls.n	8000f50 <LL_GPIO_Init+0xf8>
 8000f48:	21c8      	movs	r1, #200	; 0xc8
 8000f4a:	4650      	mov	r0, sl
 8000f4c:	f7ff f9d6 	bl	80002fc <assert_failed>
 8000f50:	f8d9 1000 	ldr.w	r1, [r9]
 8000f54:	686b      	ldr	r3, [r5, #4]
 8000f56:	f8d9 200c 	ldr.w	r2, [r9, #12]
 8000f5a:	ea23 0301 	bic.w	r3, r3, r1
 8000f5e:	434a      	muls	r2, r1
 8000f60:	4313      	orrs	r3, r2
 8000f62:	606b      	str	r3, [r5, #4]
 8000f64:	f8d9 3010 	ldr.w	r3, [r9, #16]
 8000f68:	68e9      	ldr	r1, [r5, #12]
 8000f6a:	fa94 f2a4 	rbit	r2, r4
 8000f6e:	fab2 f282 	clz	r2, r2
 8000f72:	0052      	lsls	r2, r2, #1
 8000f74:	fa07 f202 	lsl.w	r2, r7, r2
 8000f78:	ea21 0202 	bic.w	r2, r1, r2
 8000f7c:	fa94 f1a4 	rbit	r1, r4
 8000f80:	fab1 f181 	clz	r1, r1
 8000f84:	0049      	lsls	r1, r1, #1
 8000f86:	408b      	lsls	r3, r1
 8000f88:	4313      	orrs	r3, r2
 8000f8a:	60eb      	str	r3, [r5, #12]
 8000f8c:	f8d9 3004 	ldr.w	r3, [r9, #4]
 8000f90:	2b02      	cmp	r3, #2
 8000f92:	d11f      	bne.n	8000fd4 <LL_GPIO_Init+0x17c>
 8000f94:	f8d9 3014 	ldr.w	r3, [r9, #20]
 8000f98:	2b0f      	cmp	r3, #15
 8000f9a:	d903      	bls.n	8000fa4 <LL_GPIO_Init+0x14c>
 8000f9c:	21d4      	movs	r1, #212	; 0xd4
 8000f9e:	4650      	mov	r0, sl
 8000fa0:	f7ff f9ac 	bl	80002fc <assert_failed>
 8000fa4:	2cff      	cmp	r4, #255	; 0xff
 8000fa6:	f8d9 1014 	ldr.w	r1, [r9, #20]
 8000faa:	d82a      	bhi.n	8001002 <LL_GPIO_Init+0x1aa>
 8000fac:	6a2b      	ldr	r3, [r5, #32]
 8000fae:	fa94 f2a4 	rbit	r2, r4
 8000fb2:	fab2 f282 	clz	r2, r2
 8000fb6:	200f      	movs	r0, #15
 8000fb8:	0092      	lsls	r2, r2, #2
 8000fba:	fa00 f202 	lsl.w	r2, r0, r2
 8000fbe:	ea23 0202 	bic.w	r2, r3, r2
 8000fc2:	fa94 f3a4 	rbit	r3, r4
 8000fc6:	fab3 f383 	clz	r3, r3
 8000fca:	009b      	lsls	r3, r3, #2
 8000fcc:	fa01 f303 	lsl.w	r3, r1, r3
 8000fd0:	4313      	orrs	r3, r2
 8000fd2:	622b      	str	r3, [r5, #32]
 8000fd4:	f8d9 3004 	ldr.w	r3, [r9, #4]
 8000fd8:	6829      	ldr	r1, [r5, #0]
 8000fda:	fa94 f2a4 	rbit	r2, r4
 8000fde:	fab2 f282 	clz	r2, r2
 8000fe2:	0052      	lsls	r2, r2, #1
 8000fe4:	fa07 f202 	lsl.w	r2, r7, r2
 8000fe8:	ea21 0202 	bic.w	r2, r1, r2
 8000fec:	fa94 f4a4 	rbit	r4, r4
 8000ff0:	fab4 f484 	clz	r4, r4
 8000ff4:	0064      	lsls	r4, r4, #1
 8000ff6:	fa03 f404 	lsl.w	r4, r3, r4
 8000ffa:	4314      	orrs	r4, r2
 8000ffc:	602c      	str	r4, [r5, #0]
 8000ffe:	3601      	adds	r6, #1
 8001000:	e772      	b.n	8000ee8 <LL_GPIO_Init+0x90>
 8001002:	6a6b      	ldr	r3, [r5, #36]	; 0x24
 8001004:	0a22      	lsrs	r2, r4, #8
 8001006:	fa92 f0a2 	rbit	r0, r2
 800100a:	fab0 f080 	clz	r0, r0
 800100e:	f04f 0c0f 	mov.w	ip, #15
 8001012:	0080      	lsls	r0, r0, #2
 8001014:	fa0c f000 	lsl.w	r0, ip, r0
 8001018:	ea23 0000 	bic.w	r0, r3, r0
 800101c:	fa92 f2a2 	rbit	r2, r2
 8001020:	fab2 f282 	clz	r2, r2
 8001024:	0092      	lsls	r2, r2, #2
 8001026:	fa01 f302 	lsl.w	r3, r1, r2
 800102a:	4303      	orrs	r3, r0
 800102c:	626b      	str	r3, [r5, #36]	; 0x24
 800102e:	e7d1      	b.n	8000fd4 <LL_GPIO_Init+0x17c>
 8001030:	48000400 	.word	0x48000400
 8001034:	08001166 	.word	0x08001166

08001038 <__libc_init_array>:
 8001038:	b570      	push	{r4, r5, r6, lr}
 800103a:	4d0d      	ldr	r5, [pc, #52]	; (8001070 <__libc_init_array+0x38>)
 800103c:	4c0d      	ldr	r4, [pc, #52]	; (8001074 <__libc_init_array+0x3c>)
 800103e:	1b64      	subs	r4, r4, r5
 8001040:	10a4      	asrs	r4, r4, #2
 8001042:	2600      	movs	r6, #0
 8001044:	42a6      	cmp	r6, r4
 8001046:	d109      	bne.n	800105c <__libc_init_array+0x24>
 8001048:	4d0b      	ldr	r5, [pc, #44]	; (8001078 <__libc_init_array+0x40>)
 800104a:	4c0c      	ldr	r4, [pc, #48]	; (800107c <__libc_init_array+0x44>)
 800104c:	f000 f820 	bl	8001090 <_init>
 8001050:	1b64      	subs	r4, r4, r5
 8001052:	10a4      	asrs	r4, r4, #2
 8001054:	2600      	movs	r6, #0
 8001056:	42a6      	cmp	r6, r4
 8001058:	d105      	bne.n	8001066 <__libc_init_array+0x2e>
 800105a:	bd70      	pop	{r4, r5, r6, pc}
 800105c:	f855 3b04 	ldr.w	r3, [r5], #4
 8001060:	4798      	blx	r3
 8001062:	3601      	adds	r6, #1
 8001064:	e7ee      	b.n	8001044 <__libc_init_array+0xc>
 8001066:	f855 3b04 	ldr.w	r3, [r5], #4
 800106a:	4798      	blx	r3
 800106c:	3601      	adds	r6, #1
 800106e:	e7f2      	b.n	8001056 <__libc_init_array+0x1e>
 8001070:	080011a0 	.word	0x080011a0
 8001074:	080011a0 	.word	0x080011a0
 8001078:	080011a0 	.word	0x080011a0
 800107c:	080011a4 	.word	0x080011a4

08001080 <memset>:
 8001080:	4402      	add	r2, r0
 8001082:	4603      	mov	r3, r0
 8001084:	4293      	cmp	r3, r2
 8001086:	d100      	bne.n	800108a <memset+0xa>
 8001088:	4770      	bx	lr
 800108a:	f803 1b01 	strb.w	r1, [r3], #1
 800108e:	e7f9      	b.n	8001084 <memset+0x4>

08001090 <_init>:
 8001090:	b5f8      	push	{r3, r4, r5, r6, r7, lr}
 8001092:	bf00      	nop
 8001094:	bcf8      	pop	{r3, r4, r5, r6, r7}
 8001096:	bc08      	pop	{r3}
 8001098:	469e      	mov	lr, r3
 800109a:	4770      	bx	lr

0800109c <_fini>:
 800109c:	b5f8      	push	{r3, r4, r5, r6, r7, lr}
 800109e:	bf00      	nop
 80010a0:	bcf8      	pop	{r3, r4, r5, r6, r7}
 80010a2:	bc08      	pop	{r3}
 80010a4:	469e      	mov	lr, r3
 80010a6:	4770      	bx	lr
